(dp0
S'METTS MARK'
p1
(dp2
S'to_messages'
p3
I807
sS'deferral_payments'
p4
S'NaN'
p5
sS'percent_deferral_payments'
p6
S'NaN'
p7
sS'percent_from_poi'
p8
F0.04708798017348203
sS'expenses'
p9
I94299
sS'percent_expenses'
p10
F0.08880825219174121
sS'poi'
p11
I00
sS'deferred_income'
p12
g5
sS'email_address'
p13
S'mark.metts@enron.com'
p14
sS'long_term_incentive'
p15
g5
sS'percent_shared_with_poi'
p16
F0.8397129186602871
sS'restricted_stock_deferred'
p17
g5
sS'percent_bonus'
p18
F1.6402943781644013
sS'shared_receipt_with_poi'
p19
I702
sS'loan_advances'
p20
g5
sS'from_messages'
p21
I29
sS'other'
p22
I1740
sS'director_fees'
p23
g5
sS'bonus'
p24
I600000
sS'percent_to_poi'
p25
F0.034482758620689655
sS'total_stock_value'
p26
I585062
sS'from_poi_to_this_person'
p27
I38
sS'from_this_person_to_poi'
p28
I1
sS'percent_restricted_stock'
p29
F1.0
sS'restricted_stock'
p30
I585062
sS'salary'
p31
I365788
sS'total_payments'
p32
I1061827
sS'percent_restricted_stock_deferred'
p33
g7
sS'exercised_stock_options'
p34
g5
sS'percent_director_fees'
p35
g7
sS'percent_exercised_stock'
p36
g7
ssS'BAXTER JOHN C'
p37
(dp38
g3
g5
sg4
I1295738
sg6
F0.2299714447629475
sg8
g7
sg9
I11200
sg10
F0.001987809403864834
sg11
I00
sg12
I-1386055
sg13
g5
sg15
I1586055
sg16
g7
sg17
g5
sg18
F4.492665723206865
sg19
g5
sg20
g5
sg21
g5
sg22
I2660303
sg23
g5
sg24
I1200000
sg25
g7
sg26
I10623258
sg27
g5
sg28
g5
sg29
F0.3711398141700032
sg30
I3942714
sg31
I267102
sg32
I5634343
sg33
g7
sg34
I6680544
sg35
g7
sg36
F0.6288601858299968
ssS'ELLIOTT STEVEN'
p39
(dp40
g3
g5
sg4
g5
sg6
g7
sg8
g7
sg9
I78552
sg10
F0.371009564293305
sg11
I00
sg12
I-400729
sg13
S'steven.elliott@enron.com'
p41
sg15
g5
sg16
g7
sg17
g5
sg18
F2.047490069673162
sg19
g5
sg20
g5
sg21
g5
sg22
I12961
sg23
g5
sg24
I350000
sg25
g7
sg26
I6678735
sg27
g5
sg28
g5
sg29
F0.2677739122753036
sg30
I1788391
sg31
I170941
sg32
I211725
sg33
g7
sg34
I4890344
sg35
g7
sg36
F0.7322260877246963
ssS'CORDES WILLIAM R'
p42
(dp43
g3
I764
sg4
g5
sg6
g7
sg8
F0.013089005235602094
sg9
g5
sg10
g7
sg11
I00
sg12
g5
sg13
S'bill.cordes@enron.com'
p44
sg15
g5
sg16
F0.07474226804123711
sg17
g5
sg18
g7
sg19
I58
sg20
g5
sg21
I12
sg22
g5
sg23
g5
sg24
g5
sg25
F0.0
sg26
I1038185
sg27
I10
sg28
I0
sg29
F0.3721253919099197
sg30
I386335
sg31
g5
sg32
g5
sg33
g7
sg34
I651850
sg35
g7
sg36
F0.6278746080900803
ssS'HANNON KEVIN P'
p45
(dp46
g3
I1045
sg4
g5
sg6
g7
sg8
F0.03062200956937799
sg9
I34039
sg10
F0.11791175064603959
sg11
I01
sg12
I-3117011
sg13
S'kevin.hannon@enron.com'
p47
sg15
I1617011
sg16
F0.9610027855153204
sg17
g5
sg18
F6.165405498719651
sg19
I1035
sg20
g5
sg21
I32
sg22
I11350
sg23
g5
sg24
I1500000
sg25
F0.65625
sg26
I6391065
sg27
I32
sg28
I21
sg29
F0.13347759723927077
sg30
I853064
sg31
I243293
sg32
I288682
sg33
g7
sg34
I5538001
sg35
g7
sg36
F0.8665224027607292
ssS'MORDAUNT KRISTINA M'
p48
(dp49
g3
g5
sg4
g5
sg6
g7
sg8
g7
sg9
I35018
sg10
F0.05571483575753912
sg11
I00
sg12
g5
sg13
S'kristina.mordaunt@enron.com'
p50
sg15
g5
sg16
g7
sg17
g5
sg18
F1.2168046335920448
sg19
g5
sg20
g5
sg21
g5
sg22
I1411
sg23
g5
sg24
I325000
sg25
g7
sg26
I208510
sg27
g5
sg28
g5
sg29
F1.0
sg30
I208510
sg31
I267093
sg32
I628522
sg33
g7
sg34
g5
sg35
g7
sg36
g7
ssS'MEYER ROCKFORD G'
p51
(dp52
g3
I232
sg4
I1848227
sg6
F1.0
sg8
F0.0
sg9
g5
sg10
g7
sg11
I00
sg12
g5
sg13
S'rockford.meyer@enron.com'
p53
sg15
g5
sg16
F0.08461538461538462
sg17
g5
sg18
g7
sg19
I22
sg20
g5
sg21
I28
sg22
g5
sg23
g5
sg24
g5
sg25
F0.0
sg26
I955873
sg27
I0
sg28
I0
sg29
F0.4837295331074316
sg30
I462384
sg31
g5
sg32
I1848227
sg33
g7
sg34
I493489
sg35
g7
sg36
F0.5162704668925684
ssS'MCMAHON JEFFREY'
p54
(dp55
g3
I2355
sg4
g5
sg6
g7
sg8
F0.024628450106157114
sg9
I137108
sg10
F0.033442843514918275
sg11
I00
sg12
g5
sg13
S'jeffrey.mcmahon@enron.com'
p56
sg15
I694862
sg16
F0.9271743653766126
sg17
g5
sg18
F7.018528916339135
sg19
I2228
sg20
g5
sg21
I48
sg22
I297353
sg23
g5
sg24
I2600000
sg25
F0.5416666666666666
sg26
I1662855
sg27
I58
sg28
I26
sg29
F0.3360491443932273
sg30
I558801
sg31
I370448
sg32
I4099771
sg33
g7
sg34
I1104054
sg35
g7
sg36
F0.6639508556067727
ssS'HORTON STANLEY C'
p57
(dp58
g3
I2350
sg4
I3131860
sg6
F1.0
sg8
F0.01872340425531915
sg9
g5
sg10
g7
sg11
I00
sg12
g5
sg13
S'stanley.horton@enron.com'
p59
sg15
g5
sg16
F0.3137598597721297
sg17
g5
sg18
g7
sg19
I1074
sg20
g5
sg21
I1073
sg22
g5
sg23
g5
sg24
g5
sg25
F0.013979496738117428
sg26
I7256648
sg27
I44
sg28
I15
sg29
F0.28195924619741786
sg30
I2046079
sg31
g5
sg32
I3131860
sg33
g7
sg34
I5210569
sg35
g7
sg36
F0.7180407538025821
ssS'PIPER GREGORY F'
p60
(dp61
g3
I1238
sg4
I1130036
sg6
F0.6503321480016735
sg8
F0.049273021001615507
sg9
I43057
sg10
F0.024779167474760146
sg11
I00
sg12
I-33333
sg13
S'greg.piper@enron.com'
p62
sg15
g5
sg16
F0.5082191780821917
sg17
I-409554
sg18
F2.0295193590777862
sg19
I742
sg20
g5
sg21
I222
sg22
I778
sg23
g5
sg24
I400000
sg25
F0.21621621621621623
sg26
I880290
sg27
I61
sg28
I48
sg29
F0.46524895204989264
sg30
I409554
sg31
I197091
sg32
I1737629
sg33
F-0.46524895204989264
sg34
I880290
sg35
g7
sg36
F1.0
ssS'HUMPHREY GENE E'
p63
(dp64
g3
I128
sg4
I2964506
sg6
F0.9562231632294956
sg8
F0.078125
sg9
I4994
sg10
F0.0016108513449350757
sg11
I00
sg12
g5
sg13
S'gene.humphrey@enron.com'
p65
sg15
g5
sg16
F0.8206896551724138
sg17
g5
sg18
g7
sg19
I119
sg20
g5
sg21
I17
sg22
g5
sg23
g5
sg24
g5
sg25
F1.0
sg26
I2282768
sg27
I10
sg28
I17
sg29
g7
sg30
g5
sg31
I130724
sg32
I3100224
sg33
g7
sg34
I2282768
sg35
g7
sg36
F1.0
ssS'UMANOFF ADAM S'
p66
(dp67
g3
I111
sg4
g5
sg6
g7
sg8
F0.10810810810810811
sg9
I53122
sg10
F0.04699144862140313
sg11
I00
sg12
g5
sg13
S'adam.umanoff@enron.com'
p68
sg15
g5
sg16
F0.3178294573643411
sg17
g5
sg18
F2.7331256562100426
sg19
I41
sg20
g5
sg21
I18
sg22
g5
sg23
g5
sg24
I788750
sg25
F0.0
sg26
g5
sg27
I12
sg28
I0
sg29
g7
sg30
g5
sg31
I288589
sg32
I1130461
sg33
g7
sg34
g5
sg35
g7
sg36
g7
ssS'BLACHMAN JEREMY M'
p69
(dp70
g3
I2475
sg4
g5
sg6
g7
sg8
F0.010101010101010102
sg9
I84208
sg10
F0.04179399305650339
sg11
I00
sg12
g5
sg13
S'jeremy.blachman@enron.com'
p71
sg15
I831809
sg16
F0.9345118521494576
sg17
g5
sg18
F3.419890080709406
sg19
I2326
sg20
g5
sg21
I14
sg22
I272
sg23
g5
sg24
I850000
sg25
F0.14285714285714285
sg26
I954354
sg27
I25
sg28
I2
sg29
F0.19808268210747793
sg30
I189041
sg31
I248546
sg32
I2014835
sg33
g7
sg34
I765313
sg35
g7
sg36
F0.8019173178925221
ssS'SUNDE MARTIN'
p72
(dp73
g3
I2647
sg4
g5
sg6
g7
sg8
F0.013978088401964487
sg9
g5
sg10
g7
sg11
I00
sg12
g5
sg13
S'marty.sunde@enron.com'
p74
sg15
I476451
sg16
F0.9553072625698324
sg17
g5
sg18
F2.7185944090164127
sg19
I2565
sg20
g5
sg21
I38
sg22
I111122
sg23
g5
sg24
I700000
sg25
F0.34210526315789475
sg26
I698920
sg27
I37
sg28
I13
sg29
F1.0
sg30
I698920
sg31
I257486
sg32
I1545059
sg33
g7
sg34
g5
sg35
g7
sg36
g7
ssS'GIBBS DANA R'
p75
(dp76
g3
I169
sg4
I504610
sg6
F0.5220884780687869
sg8
F0.0
sg9
g5
sg10
g7
sg11
I00
sg12
g5
sg13
S'dana.gibbs@enron.com'
p77
sg15
I461912
sg16
F0.1270718232044199
sg17
g5
sg18
g7
sg19
I23
sg20
g5
sg21
I12
sg22
g5
sg23
g5
sg24
g5
sg25
F0.0
sg26
I2218275
sg27
I0
sg28
I0
sg29
g7
sg30
g5
sg31
g5
sg32
I966522
sg33
g7
sg34
I2218275
sg35
g7
sg36
F1.0
ssS'LOWRY CHARLES P'
p78
(dp79
g3
g5
sg4
g5
sg6
g7
sg8
g7
sg9
g5
sg10
g7
sg11
I00
sg12
g5
sg13
g5
sg15
g5
sg16
g7
sg17
I-153686
sg18
g7
sg19
g5
sg20
g5
sg21
g5
sg22
g5
sg23
g5
sg24
g5
sg25
g7
sg26
I372205
sg27
g5
sg28
g5
sg29
F0.41290686584006125
sg30
I153686
sg31
g5
sg32
g5
sg33
F-0.41290686584006125
sg34
I372205
sg35
g7
sg36
F1.0
ssS'COLWELL WESLEY'
p80
(dp81
g3
I1758
sg4
I27610
sg6
F0.01852592421615412
sg8
F0.13651877133105803
sg9
I16514
sg10
F0.011080663256268351
sg11
I01
sg12
I-144062
sg13
S'wes.colwell@enron.com'
p82
sg15
g5
sg16
F0.6295884315906563
sg17
g5
sg18
F4.158839960906905
sg19
I1132
sg20
g5
sg21
I40
sg22
I101740
sg23
g5
sg24
I1200000
sg25
F0.275
sg26
I698242
sg27
I240
sg28
I11
sg29
F1.0
sg30
I698242
sg31
I288542
sg32
I1490344
sg33
g7
sg34
g5
sg35
g7
sg36
g7
ssS'MULLER MARK S'
p83
(dp84
g3
I136
sg4
I842924
sg6
F0.2632434643839766
sg8
F0.08823529411764706
sg9
g5
sg10
g7
sg11
I00
sg12
I-719000
sg13
S's..muller@enron.com'
p85
sg15
I1725545
sg16
F0.75
sg17
g5
sg18
F4.3710809285765375
sg19
I114
sg20
g5
sg21
I16
sg22
I947
sg23
g5
sg24
I1100000
sg25
F0.0
sg26
I1416848
sg27
I12
sg28
I0
sg29
F0.2544577823450363
sg30
I360528
sg31
I251654
sg32
I3202070
sg33
g7
sg34
I1056320
sg35
g7
sg36
F0.7455422176549636
ssS'JACKSON CHARLENE R'
p86
(dp87
g3
I258
sg4
g5
sg6
g7
sg8
F0.09689922480620156
sg9
I10181
sg10
F0.01847148087536785
sg11
I00
sg12
g5
sg13
S'charlene.jackson@enron.com'
p88
sg15
g5
sg16
F0.37261146496815284
sg17
g5
sg18
F0.8663769502145149
sg19
I117
sg20
g5
sg21
I56
sg22
I2435
sg23
g5
sg24
I250000
sg25
F0.3392857142857143
sg26
I725735
sg27
I25
sg28
I19
sg29
F0.7449992076997802
sg30
I540672
sg31
I288558
sg32
I551174
sg33
g7
sg34
I185063
sg35
g7
sg36
F0.25500079230021977
ssS'WESTFAHL RICHARD K'
p89
(dp90
g3
g5
sg4
g5
sg6
g7
sg8
g7
sg9
I51870
sg10
F0.06805880847881281
sg11
I00
sg12
I-10800
sg13
S'dick.westfahl@enron.com'
p91
sg15
I256191
sg16
g7
sg17
g5
sg18
g7
sg19
g5
sg20
g5
sg21
g5
sg22
I401130
sg23
g5
sg24
g5
sg25
g7
sg26
I384930
sg27
g5
sg28
g5
sg29
F1.0
sg30
I384930
sg31
I63744
sg32
I762135
sg33
g7
sg34
g5
sg35
g7
sg36
g7
ssS'WALTERS GARETH W'
p92
(dp93
g3
g5
sg4
I53625
sg6
F0.6134881592495138
sg8
g7
sg9
I33785
sg10
F0.3865118407504862
sg11
I00
sg12
g5
sg13
g5
sg15
g5
sg16
g7
sg17
g5
sg18
g7
sg19
g5
sg20
g5
sg21
g5
sg22
g5
sg23
g5
sg24
g5
sg25
g7
sg26
I1030329
sg27
g5
sg28
g5
sg29
g7
sg30
g5
sg31
g5
sg32
I87410
sg33
g7
sg34
I1030329
sg35
g7
sg36
F1.0
ssS'WALLS JR ROBERT H'
p94
(dp95
g3
I671
sg4
g5
sg6
g7
sg8
F0.02533532041728763
sg9
I50936
sg10
F0.028316970391042817
sg11
I00
sg12
g5
sg13
S'rob.walls@enron.com'
p96
sg15
I540751
sg16
F0.2631578947368421
sg17
g5
sg18
F2.380345626184922
sg19
I215
sg20
g5
sg21
I146
sg22
I2
sg23
g5
sg24
I850000
sg25
F0.0
sg26
I5898997
sg27
I17
sg28
I0
sg29
F0.2631723664209356
sg30
I1552453
sg31
I357091
sg32
I1798780
sg33
g7
sg34
I4346544
sg35
g7
sg36
F0.7368276335790643
ssS'KITCHEN LOUISE'
p97
(dp98
g3
I8305
sg4
g5
sg6
g7
sg8
F0.030222757375075255
sg9
I5774
sg10
F0.0016634299787879547
sg11
I00
sg12
g5
sg13
S'louise.kitchen@enron.com'
p99
sg15
g5
sg16
F0.36569321239908303
sg17
g5
sg18
F11.420487617981005
sg19
I3669
sg20
g5
sg21
I1728
sg22
I93925
sg23
g5
sg24
I3100000
sg25
F0.11226851851851852
sg26
I547143
sg27
I251
sg28
I194
sg29
F0.8518815008142295
sg30
I466101
sg31
I271442
sg32
I3471141
sg33
g7
sg34
I81042
sg35
g7
sg36
F0.14811849918577044
ssS'CHAN RONNIE'
p100
(dp101
g3
g5
sg4
g5
sg6
g7
sg8
g7
sg9
g5
sg10
g7
sg11
I00
sg12
I-98784
sg13
g5
sg15
g5
sg16
g7
sg17
I-32460
sg18
g7
sg19
g5
sg20
g5
sg21
g5
sg22
g5
sg23
I98784
sg24
g5
sg25
g7
sg26
g5
sg27
g5
sg28
g5
sg29
g7
sg30
I32460
sg31
g5
sg32
g5
sg33
g7
sg34
g5
sg35
g7
sg36
g7
ssS'BELFER ROBERT'
p102
(dp103
g3
g5
sg4
I-102500
sg6
F-1.0
sg8
g7
sg9
g5
sg10
g7
sg11
I00
sg12
g5
sg13
g5
sg15
g5
sg16
g7
sg17
I44093
sg18
g7
sg19
g5
sg20
g5
sg21
g5
sg22
g5
sg23
I3285
sg24
g5
sg25
g7
sg26
I-44093
sg27
g5
sg28
g5
sg29
g7
sg30
g5
sg31
g5
sg32
I102500
sg33
F-1.0
sg34
I3285
sg35
F0.03204878048780488
sg36
F-0.07450162157258522
ssS'SHANKMAN JEFFREY A'
p104
(dp105
g3
I3221
sg4
g5
sg6
g7
sg8
F0.029183483390251473
sg9
I178979
sg10
F0.05889981972565918
sg11
I00
sg12
g5
sg13
S'jeffrey.shankman@enron.com'
p106
sg15
I554422
sg16
F0.2931209759403592
sg17
g5
sg18
F6.576567689322943
sg19
I1730
sg20
g5
sg21
I2681
sg22
I1191
sg23
g5
sg24
I2000000
sg25
F0.030958597538232
sg26
I2072035
sg27
I94
sg28
I83
sg29
F0.3041150366668517
sg30
I630137
sg31
I304110
sg32
I3038702
sg33
g7
sg34
I1441898
sg35
g7
sg36
F0.6958849633331483
ssS'WODRASKA JOHN'
p107
(dp108
g3
g5
sg4
g5
sg6
g7
sg8
g7
sg9
g5
sg10
g7
sg11
I00
sg12
g5
sg13
S'john.wodraska@enron.com'
p109
sg15
g5
sg16
g7
sg17
g5
sg18
g7
sg19
g5
sg20
g5
sg21
g5
sg22
I189583
sg23
g5
sg24
g5
sg25
g7
sg26
g5
sg27
g5
sg28
g5
sg29
g7
sg30
g5
sg31
g5
sg32
I189583
sg33
g7
sg34
g5
sg35
g7
sg36
g7
ssS'BERGSIEKER RICHARD P'
p110
(dp111
g3
I383
sg4
g5
sg6
g7
sg8
F0.010443864229765013
sg9
I59175
sg10
F0.09562090975195928
sg11
I00
sg12
I-485813
sg13
S'rick.bergsieker@enron.com'
p112
sg15
I180250
sg16
F0.5271493212669683
sg17
g5
sg18
F1.3303391832781686
sg19
I233
sg20
g5
sg21
I59
sg22
I427316
sg23
g5
sg24
I250000
sg25
F0.0
sg26
I659249
sg27
I4
sg28
I0
sg29
F1.0
sg30
I659249
sg31
I187922
sg32
I618850
sg33
g7
sg34
g5
sg35
g7
sg36
g7
ssS'URQUHART JOHN A'
p113
(dp114
g3
g5
sg4
g5
sg6
g7
sg8
g7
sg9
I228656
sg10
F1.0
sg11
I00
sg12
I-36666
sg13
g5
sg15
g5
sg16
g7
sg17
g5
sg18
g7
sg19
g5
sg20
g5
sg21
g5
sg22
g5
sg23
I36666
sg24
g5
sg25
g7
sg26
g5
sg27
g5
sg28
g5
sg29
g7
sg30
g5
sg31
g5
sg32
I228656
sg33
g7
sg34
g5
sg35
F0.16035441886501994
sg36
g7
ssS'BIBI PHILIPPE A'
p115
(dp116
g3
I1607
sg4
g5
sg6
g7
sg8
F0.01431238332296204
sg9
I38559
sg10
F0.018831379087543277
sg11
I00
sg12
g5
sg13
S'philippe.bibi@enron.com'
p117
sg15
I369721
sg16
F0.8111718275652702
sg17
g5
sg18
F4.681100058513751
sg19
I1336
sg20
g5
sg21
I40
sg22
I425688
sg23
g5
sg24
I1000000
sg25
F0.2
sg26
I1843816
sg27
I23
sg28
I8
sg29
F0.20505408348772328
sg30
I378082
sg31
I213625
sg32
I2047593
sg33
g7
sg34
I1465734
sg35
g7
sg36
F0.7949459165122768
ssS'RIEKER PAULA H'
p118
(dp119
g3
I1328
sg4
I214678
sg6
F0.19532162678555182
sg8
F0.02635542168674699
sg9
I33271
sg10
F0.03027113092530252
sg11
I01
sg12
I-100000
sg13
S'paula.rieker@enron.com'
p120
sg15
g5
sg16
F0.8921985815602836
sg17
g5
sg18
F2.8089774920646384
sg19
I1258
sg20
g5
sg21
I82
sg22
I1950
sg23
g5
sg24
I700000
sg25
F0.5853658536585366
sg26
I1918887
sg27
I35
sg28
I48
sg29
F0.14781954330817812
sg30
I283649
sg31
I249201
sg32
I1099100
sg33
g7
sg34
I1635238
sg35
g7
sg36
F0.8521804566918219
ssS'WHALEY DAVID A'
p121
(dp122
g3
g5
sg4
g5
sg6
g7
sg8
g7
sg9
g5
sg10
g7
sg11
I00
sg12
g5
sg13
g5
sg15
g5
sg16
g7
sg17
g5
sg18
g7
sg19
g5
sg20
g5
sg21
g5
sg22
g5
sg23
g5
sg24
g5
sg25
g7
sg26
I98718
sg27
g5
sg28
g5
sg29
g7
sg30
g5
sg31
g5
sg32
g5
sg33
g7
sg34
I98718
sg35
g7
sg36
F1.0
ssS'BECK SALLY W'
p123
(dp124
g3
I7315
sg4
g5
sg6
g7
sg8
F0.01968557758031442
sg9
I37172
sg10
F0.0383585052854908
sg11
I00
sg12
g5
sg13
S'sally.beck@enron.com'
p125
sg15
g5
sg16
F0.2263681592039801
sg17
g5
sg18
F3.025980201443825
sg19
I2639
sg20
g5
sg21
I4343
sg22
I566
sg23
g5
sg24
I700000
sg25
F0.08887865530739121
sg26
I126027
sg27
I144
sg28
I386
sg29
F1.0
sg30
I126027
sg31
I231330
sg32
I969068
sg33
g7
sg34
g5
sg35
g7
sg36
g7
ssS'HAUG DAVID L'
p126
(dp127
g3
I573
sg4
g5
sg6
g7
sg8
F0.006980802792321117
sg9
I475
sg10
F1.0
sg11
I00
sg12
g5
sg13
S'david.haug@enron.com'
p128
sg15
g5
sg16
F0.7956081081081081
sg17
g5
sg18
g7
sg19
I471
sg20
g5
sg21
I19
sg22
g5
sg23
g5
sg24
g5
sg25
F0.3684210526315789
sg26
I2217299
sg27
I4
sg28
I7
sg29
F1.0
sg30
I2217299
sg31
g5
sg32
I475
sg33
g7
sg34
g5
sg35
g7
sg36
g7
ssS'ECHOLS JOHN B'
p129
(dp130
g3
g5
sg4
g5
sg6
g7
sg8
g7
sg9
I21530
sg10
F0.007996808705044415
sg11
I00
sg12
g5
sg13
S'john.echols@enron.com'
p131
sg15
I2234774
sg16
g7
sg17
g5
sg18
F1.0974237976350518
sg19
g5
sg20
g5
sg21
g5
sg22
I53775
sg23
g5
sg24
I200000
sg25
g7
sg26
I1008941
sg27
g5
sg28
g5
sg29
F0.40389180338592645
sg30
I407503
sg31
I182245
sg32
I2692324
sg33
g7
sg34
I601438
sg35
g7
sg36
F0.5961081966140735
ssS'MENDELSOHN JOHN'
p132
(dp133
g3
g5
sg4
g5
sg6
g7
sg8
g7
sg9
I148
sg10
F1.0
sg11
I00
sg12
I-103750
sg13
g5
sg15
g5
sg16
g7
sg17
g5
sg18
g7
sg19
g5
sg20
g5
sg21
g5
sg22
g5
sg23
I103750
sg24
g5
sg25
g7
sg26
g5
sg27
g5
sg28
g5
sg29
g7
sg30
g5
sg31
g5
sg32
I148
sg33
g7
sg34
g5
sg35
F701.0135135135135
sg36
g7
ssS'HICKERSON GARY J'
p134
(dp135
g3
I1320
sg4
g5
sg6
g7
sg8
F0.030303030303030304
sg9
I98849
sg10
F0.04748255832944246
sg11
I00
sg12
g5
sg13
S'gary.hickerson@enron.com'
p136
sg15
I69223
sg16
F0.6681514476614699
sg17
g5
sg18
F8.02689481934765
sg19
I900
sg20
g5
sg21
I27
sg22
I1936
sg23
g5
sg24
I1700000
sg25
F0.037037037037037035
sg26
I441096
sg27
I40
sg28
I1
sg29
F1.0
sg30
I441096
sg31
I211788
sg32
I2081796
sg33
g7
sg34
g5
sg35
g7
sg36
g7
ssS'CLINE KENNETH W'
p137
(dp138
g3
g5
sg4
g5
sg6
g7
sg8
g7
sg9
g5
sg10
g7
sg11
I00
sg12
g5
sg13
g5
sg15
g5
sg16
g7
sg17
I-472568
sg18
g7
sg19
g5
sg20
g5
sg21
g5
sg22
g5
sg23
g5
sg24
g5
sg25
g7
sg26
I189518
sg27
g5
sg28
g5
sg29
F3.4935256809379585
sg30
I662086
sg31
g5
sg32
g5
sg33
F-2.4935256809379585
sg34
g5
sg35
g7
sg36
g7
ssS'LEWIS RICHARD'
p139
(dp140
g3
I952
sg4
g5
sg6
g7
sg8
F0.01050420168067227
sg9
g5
sg10
g7
sg11
I00
sg12
g5
sg13
S'richard.lewis@enron.com'
p141
sg15
g5
sg16
F0.7556237218813906
sg17
g5
sg18
g7
sg19
I739
sg20
g5
sg21
I26
sg22
g5
sg23
g5
sg24
g5
sg25
F0.0
sg26
I850477
sg27
I10
sg28
I0
sg29
g7
sg30
g5
sg31
g5
sg32
g5
sg33
g7
sg34
I850477
sg35
g7
sg36
F1.0
ssS'HAYES ROBERT E'
p142
(dp143
g3
I504
sg4
I7961
sg6
F1.0
sg8
F0.031746031746031744
sg9
g5
sg10
g7
sg11
I00
sg12
g5
sg13
S'robert.hayes@enron.com'
p144
sg15
g5
sg16
F0.09689922480620156
sg17
g5
sg18
g7
sg19
I50
sg20
g5
sg21
I12
sg22
g5
sg23
g5
sg24
g5
sg25
F0.0
sg26
I151418
sg27
I16
sg28
I0
sg29
F1.0
sg30
I151418
sg31
g5
sg32
I7961
sg33
g7
sg34
g5
sg35
g7
sg36
g7
ssS'MCCARTY DANNY J'
p145
(dp146
g3
I1433
sg4
g5
sg6
g7
sg8
F0.017445917655268667
sg9
g5
sg10
g7
sg11
I00
sg12
g5
sg13
S'danny.mccarty@enron.com'
p147
sg15
g5
sg16
F0.308252427184466
sg17
g5
sg18
g7
sg19
I508
sg20
g5
sg21
I215
sg22
g5
sg23
g5
sg24
g5
sg25
F0.009302325581395349
sg26
I758931
sg27
I25
sg28
I2
sg29
F0.12459103660280052
sg30
I94556
sg31
g5
sg32
g5
sg33
g7
sg34
I664375
sg35
g7
sg36
F0.8754089633971995
ssS'KOPPER MICHAEL J'
p148
(dp149
g3
g5
sg4
g5
sg6
g7
sg8
g7
sg9
I118134
sg10
F0.04453497156764728
sg11
I01
sg12
g5
sg13
S'michael.kopper@enron.com'
p150
sg15
I602671
sg16
g7
sg17
g5
sg18
F3.5665723011078665
sg19
g5
sg20
g5
sg21
g5
sg22
I907502
sg23
g5
sg24
I800000
sg25
g7
sg26
I985032
sg27
g5
sg28
g5
sg29
F1.0
sg30
I985032
sg31
I224305
sg32
I2652612
sg33
g7
sg34
g5
sg35
g7
sg36
g7
ssS'LEFF DANIEL P'
p151
(dp152
g3
I2822
sg4
g5
sg6
g7
sg8
F0.02374202693125443
sg9
g5
sg10
g7
sg11
I00
sg12
g5
sg13
S'dan.leff@enron.com'
p153
sg15
I1387399
sg16
F0.9261698440207973
sg17
g5
sg18
F3.653021414011529
sg19
I2672
sg20
g5
sg21
I63
sg22
I3083
sg23
g5
sg24
I1000000
sg25
F0.2222222222222222
sg26
I360528
sg27
I67
sg28
I14
sg29
F1.0
sg30
I360528
sg31
I273746
sg32
I2664228
sg33
g7
sg34
g5
sg35
g7
sg36
g7
ssS'LAVORATO JOHN J'
p154
(dp155
g3
I7259
sg4
g5
sg6
g7
sg8
F0.07273729163796666
sg9
I49537
sg10
F0.004751405581388478
sg11
I00
sg12
g5
sg13
S'john.lavorato@enron.com'
p156
sg15
I2035380
sg16
F0.4024786672084518
sg17
g5
sg18
F23.57878852184575
sg19
I3962
sg20
g5
sg21
I2585
sg22
I1552
sg23
g5
sg24
I8000000
sg25
F0.15899419729206962
sg26
I5167144
sg27
I528
sg28
I411
sg29
F0.19510758747965995
sg30
I1008149
sg31
I339288
sg32
I10425757
sg33
g7
sg34
I4158995
sg35
g7
sg36
F0.80489241252034
ssS'BERBERIAN DAVID'
p157
(dp158
g3
g5
sg4
g5
sg6
g7
sg8
g7
sg9
I11892
sg10
F0.052049686178733685
sg11
I00
sg12
g5
sg13
S'david.berberian@enron.com'
p159
sg15
g5
sg16
g7
sg17
g5
sg18
g7
sg19
g5
sg20
g5
sg21
g5
sg22
g5
sg23
g5
sg24
g5
sg25
g7
sg26
I2493616
sg27
g5
sg28
g5
sg29
F0.34857812911049657
sg30
I869220
sg31
I216582
sg32
I228474
sg33
g7
sg34
I1624396
sg35
g7
sg36
F0.6514218708895034
ssS'DETMERING TIMOTHY J'
p160
(dp161
g3
g5
sg4
I875307
sg6
F0.7266473128045141
sg8
g7
sg9
I52255
sg10
F0.0433801572826447
sg11
I00
sg12
I-775241
sg13
S'timothy.detmering@enron.com'
p162
sg15
I415657
sg16
g7
sg17
I-315068
sg18
F2.019002375296912
sg19
g5
sg20
g5
sg21
g5
sg22
I1105
sg23
g5
sg24
I425000
sg25
g7
sg26
I2027865
sg27
g5
sg28
g5
sg29
F0.15536931699102258
sg30
I315068
sg31
I210500
sg32
I1204583
sg33
F-0.15536931699102258
sg34
I2027865
sg35
g7
sg36
F1.0
ssS'WAKEHAM JOHN'
p163
(dp164
g3
g5
sg4
g5
sg6
g7
sg8
g7
sg9
I103773
sg10
F0.4870348381525407
sg11
I00
sg12
g5
sg13
g5
sg15
g5
sg16
g7
sg17
g5
sg18
g7
sg19
g5
sg20
g5
sg21
g5
sg22
g5
sg23
I109298
sg24
g5
sg25
g7
sg26
g5
sg27
g5
sg28
g5
sg29
g7
sg30
g5
sg31
g5
sg32
I213071
sg33
g7
sg34
g5
sg35
F0.5129651618474593
sg36
g7
ssS'POWERS WILLIAM'
p165
(dp166
g3
I653
sg4
g5
sg6
g7
sg8
F0.0
sg9
g5
sg10
g7
sg11
I00
sg12
I-17500
sg13
S'ken.powers@enron.com'
p167
sg15
g5
sg16
F0.017673048600883652
sg17
g5
sg18
g7
sg19
I12
sg20
g5
sg21
I26
sg22
g5
sg23
I17500
sg24
g5
sg25
F0.0
sg26
g5
sg27
I0
sg28
I0
sg29
g7
sg30
g5
sg31
g5
sg32
g5
sg33
g7
sg34
g5
sg35
g7
sg36
g7
ssS'GOLD JOSEPH'
p168
(dp169
g3
g5
sg4
g5
sg6
g7
sg8
g7
sg9
g5
sg10
g7
sg11
I00
sg12
g5
sg13
S'joe.gold@enron.com'
p170
sg15
I304805
sg16
g7
sg17
g5
sg18
F2.748460861917326
sg19
g5
sg20
g5
sg21
g5
sg22
I819288
sg23
g5
sg24
I750000
sg25
g7
sg26
I877611
sg27
g5
sg28
g5
sg29
F0.5026099262657373
sg30
I441096
sg31
I272880
sg32
I2146973
sg33
g7
sg34
I436515
sg35
g7
sg36
F0.4973900737342627
ssS'BANNANTINE JAMES M'
p171
(dp172
g3
I566
sg4
g5
sg6
g7
sg8
F0.06890459363957598
sg9
I56301
sg10
F0.0614507578610277
sg11
I00
sg12
I-5104
sg13
S'james.bannantine@enron.com'
p173
sg15
g5
sg16
F0.7815126050420168
sg17
I-560222
sg18
g7
sg19
I465
sg20
g5
sg21
I29
sg22
I864523
sg23
g5
sg24
g5
sg25
F0.0
sg26
I5243487
sg27
I39
sg28
I0
sg29
F0.33518763372541976
sg30
I1757552
sg31
I477
sg32
I916197
sg33
F-0.10684149688937915
sg34
I4046157
sg35
g7
sg36
F0.7716538631639595
ssS'DUNCAN JOHN H'
p174
(dp175
g3
g5
sg4
g5
sg6
g7
sg8
g7
sg9
g5
sg10
g7
sg11
I00
sg12
I-25000
sg13
g5
sg15
g5
sg16
g7
sg17
g5
sg18
g7
sg19
g5
sg20
g5
sg21
g5
sg22
g5
sg23
I102492
sg24
g5
sg25
g7
sg26
I371750
sg27
g5
sg28
g5
sg29
g7
sg30
g5
sg31
g5
sg32
I77492
sg33
g7
sg34
I371750
sg35
F1.3226139472461673
sg36
F1.0
ssS'SHAPIRO RICHARD S'
p176
(dp177
g3
I15149
sg4
g5
sg6
g7
sg8
F0.0048848108786058485
sg9
I137767
sg10
F0.1302702099573731
sg11
I00
sg12
g5
sg13
S'richard.shapiro@enron.com'
p178
sg15
g5
sg16
F0.2766438523588365
sg17
g5
sg18
F2.4156743819590005
sg19
I4527
sg20
g5
sg21
I1215
sg22
I705
sg23
g5
sg24
I650000
sg25
F0.053497942386831275
sg26
I987001
sg27
I74
sg28
I65
sg29
F0.3841576654937533
sg30
I379164
sg31
I269076
sg32
I1057548
sg33
g7
sg34
I607837
sg35
g7
sg36
F0.6158423345062467
ssS'SHERRIFF JOHN R'
p179
(dp180
g3
I3187
sg4
g5
sg6
g7
sg8
F0.008785691873235017
sg9
g5
sg10
g7
sg11
I00
sg12
g5
sg13
S'john.sherriff@enron.com'
p181
sg15
I554422
sg16
F0.6413540713632205
sg17
g5
sg18
F3.4982974952189934
sg19
I2103
sg20
g5
sg21
I92
sg22
I1852186
sg23
g5
sg24
I1500000
sg25
F0.25
sg26
I3128982
sg27
I28
sg28
I23
sg29
F0.41336894875074387
sg30
I1293424
sg31
I428780
sg32
I4335388
sg33
g7
sg34
I1835558
sg35
g7
sg36
F0.5866310512492562
ssS'SHELBY REX'
p182
(dp183
g3
I225
sg4
g5
sg6
g7
sg8
F0.057777777777777775
sg9
I22884
sg10
F0.011419817005466881
sg11
I01
sg12
I-4167
sg13
S'rex.shelby@enron.com'
p184
sg15
g5
sg16
F0.3446969696969697
sg17
g5
sg18
F0.9440909348388437
sg19
I91
sg20
g5
sg21
I39
sg22
I1573324
sg23
g5
sg24
I200000
sg25
F0.358974358974359
sg26
I2493616
sg27
I13
sg28
I14
sg29
F0.34857812911049657
sg30
I869220
sg31
I211844
sg32
I2003885
sg33
g7
sg34
I1624396
sg35
g7
sg36
F0.6514218708895034
ssS'LEMAISTRE CHARLES'
p185
(dp186
g3
g5
sg4
g5
sg6
g7
sg8
g7
sg9
g5
sg10
g7
sg11
I00
sg12
I-25000
sg13
g5
sg15
g5
sg16
g7
sg17
g5
sg18
g7
sg19
g5
sg20
g5
sg21
g5
sg22
g5
sg23
I112492
sg24
g5
sg25
g7
sg26
I412878
sg27
g5
sg28
g5
sg29
g7
sg30
g5
sg31
g5
sg32
I87492
sg33
g7
sg34
I412878
sg35
F1.285740410551822
sg36
F1.0
ssS'DEFFNER JOSEPH M'
p187
(dp188
g3
I714
sg4
g5
sg6
g7
sg8
F0.16106442577030813
sg9
I41626
sg10
F0.034440106267410966
sg11
I00
sg12
g5
sg13
S'joseph.deffner@enron.com'
p189
sg15
I335349
sg16
F0.700507614213198
sg17
g5
sg18
F2.910911551952494
sg19
I552
sg20
g5
sg21
I74
sg22
I25553
sg23
g5
sg24
I600000
sg25
F0.05405405405405406
sg26
I159211
sg27
I115
sg28
I4
sg29
F0.8908492503658667
sg30
I141833
sg31
I206121
sg32
I1208649
sg33
g7
sg34
I17378
sg35
g7
sg36
F0.10915074963413332
ssS'KISHKILL JOSEPH G'
p190
(dp191
g3
g5
sg4
g5
sg6
g7
sg8
g7
sg9
I116335
sg10
F0.16503853050662792
sg11
I00
sg12
I-51042
sg13
S'joe.kishkill@enron.com'
p192
sg15
g5
sg16
g7
sg17
g5
sg18
g7
sg19
g5
sg20
g5
sg21
g5
sg22
I465357
sg23
g5
sg24
g5
sg25
g7
sg26
I1034346
sg27
g5
sg28
g5
sg29
F1.0
sg30
I1034346
sg31
I174246
sg32
I704896
sg33
g7
sg34
g5
sg35
g7
sg36
g7
ssS'WHALLEY LAWRENCE G'
p193
(dp194
g3
I6019
sg4
g5
sg6
g7
sg8
F0.03090214321315833
sg9
I57838
sg10
F0.012364956706190004
sg11
I00
sg12
g5
sg13
S'greg.whalley@enron.com'
p195
sg15
I808346
sg16
F0.5961977186311787
sg17
g5
sg18
F5.878157550297435
sg19
I3920
sg20
g5
sg21
I556
sg22
I301026
sg23
g5
sg24
I3000000
sg25
F0.04316546762589928
sg26
I6079137
sg27
I186
sg28
I24
sg29
F0.4599628203805902
sg30
I2796177
sg31
I510364
sg32
I4677574
sg33
g7
sg34
I3282960
sg35
g7
sg36
F0.5400371796194098
ssS'MCCONNELL MICHAEL S'
p196
(dp197
g3
I3329
sg4
g5
sg6
g7
sg8
F0.02763592670471613
sg9
I81364
sg10
F0.038719612594486245
sg11
I00
sg12
g5
sg13
S'mike.mcconnell@enron.com'
p198
sg15
I554422
sg16
F0.3605666282325811
sg17
g5
sg18
F3.013384907872605
sg19
I2189
sg20
g5
sg21
I2742
sg22
I540
sg23
g5
sg24
I1100000
sg25
F0.07075127644055434
sg26
I3101279
sg27
I92
sg28
I194
sg29
F0.47666430527533965
sg30
I1478269
sg31
I365038
sg32
I2101364
sg33
g7
sg34
I1623010
sg35
g7
sg36
F0.5233356947246603
ssS'PIRO JIM'
p199
(dp200
g3
I58
sg4
g5
sg6
g7
sg8
F0.0
sg9
g5
sg10
g7
sg11
I00
sg12
g5
sg13
S'jim.piro@enron.com'
p201
sg15
g5
sg16
F0.04054054054054054
sg17
g5
sg18
g7
sg19
I3
sg20
g5
sg21
I16
sg22
g5
sg23
g5
sg24
g5
sg25
F0.0625
sg26
I47304
sg27
I0
sg28
I1
sg29
F1.0
sg30
I47304
sg31
g5
sg32
g5
sg33
g7
sg34
g5
sg35
g7
sg36
g7
ssS'DELAINEY DAVID W'
p202
(dp203
g3
I3093
sg4
g5
sg6
g7
sg8
F0.02133850630455868
sg9
I86174
sg10
F0.018149616921220586
sg11
I01
sg12
g5
sg13
S'david.delainey@enron.com'
p204
sg15
I1294981
sg16
F0.3403115871470302
sg17
g5
sg18
F8.215509238340138
sg19
I2097
sg20
g5
sg21
I3069
sg22
I1661
sg23
g5
sg24
I3000000
sg25
F0.198435972629521
sg26
I3614261
sg27
I66
sg28
I609
sg29
F0.3660908827558386
sg30
I1323148
sg31
I365163
sg32
I4747979
sg33
g7
sg34
I2291113
sg35
g7
sg36
F0.6339091172441614
ssS'SULLIVAN-SHAKLOVITZ COLLEEN'
p205
(dp206
g3
g5
sg4
I181993
sg6
F0.18211027901968868
sg8
g7
sg9
g5
sg10
g7
sg11
I00
sg12
g5
sg13
g5
sg15
I554422
sg16
g7
sg17
g5
sg18
F0.6143298582741017
sg19
g5
sg20
g5
sg21
g5
sg22
I162
sg23
g5
sg24
I100000
sg25
g7
sg26
I1362375
sg27
g5
sg28
g5
sg29
g7
sg30
g5
sg31
I162779
sg32
I999356
sg33
g7
sg34
I1362375
sg35
g7
sg36
F1.0
ssS'WROBEL BRUCE'
p207
(dp208
g3
g5
sg4
g5
sg6
g7
sg8
g7
sg9
g5
sg10
g7
sg11
I00
sg12
g5
sg13
g5
sg15
g5
sg16
g7
sg17
g5
sg18
g7
sg19
g5
sg20
g5
sg21
g5
sg22
g5
sg23
g5
sg24
g5
sg25
g7
sg26
I139130
sg27
g5
sg28
g5
sg29
g7
sg30
g5
sg31
g5
sg32
g5
sg33
g7
sg34
I139130
sg35
g7
sg36
F1.0
ssS'LINDHOLM TOD A'
p209
(dp210
g3
g5
sg4
I204075
sg6
F0.23299185170723688
sg8
g7
sg9
I57727
sg10
F0.06590675302464125
sg11
I00
sg12
g5
sg13
S'tod.lindholm@enron.com'
p211
sg15
I175000
sg16
g7
sg17
g5
sg18
F0.8458197473536415
sg19
g5
sg20
g5
sg21
g5
sg22
I2630
sg23
g5
sg24
I200000
sg25
g7
sg26
I3064208
sg27
g5
sg28
g5
sg29
F0.1680195991916998
sg30
I514847
sg31
I236457
sg32
I875889
sg33
g7
sg34
I2549361
sg35
g7
sg36
F0.8319804008083003
ssS'MEYER JEROME J'
p212
(dp213
g3
g5
sg4
g5
sg6
g7
sg8
g7
sg9
I2151
sg10
F1.0
sg11
I00
sg12
I-38346
sg13
g5
sg15
g5
sg16
g7
sg17
g5
sg18
g7
sg19
g5
sg20
g5
sg21
g5
sg22
g5
sg23
I38346
sg24
g5
sg25
g7
sg26
g5
sg27
g5
sg28
g5
sg29
g7
sg30
g5
sg31
g5
sg32
I2151
sg33
g7
sg34
g5
sg35
F17.82705718270572
sg36
g7
ssS'LAY KENNETH L'
p214
(dp215
g3
I4273
sg4
I202911
sg6
F0.001959360811005097
sg8
F0.028785396676807865
sg9
I99832
sg10
F0.0009640034718879749
sg11
I01
sg12
I-300000
sg13
S'kenneth.lay@enron.com'
p216
sg15
I3600000
sg16
F0.5595265722905547
sg17
g5
sg18
F6.527896031132468
sg19
I2411
sg20
I81525000
sg21
I36
sg22
I10359729
sg23
g5
sg24
I7000000
sg25
F0.4444444444444444
sg26
I49110078
sg27
I123
sg28
I16
sg29
F0.30058380277872904
sg30
I14761694
sg31
I1072321
sg32
I103559793
sg33
g7
sg34
I34348384
sg35
g7
sg36
F0.6994161972212709
ssS'BUTTS ROBERT H'
p217
(dp218
g3
g5
sg4
g5
sg6
g7
sg8
g7
sg9
I9410
sg10
F0.007400230578916657
sg11
I00
sg12
I-75000
sg13
S'bob.butts@enron.com'
p219
sg15
I175000
sg16
g7
sg17
g5
sg18
F2.8678933602532926
sg19
g5
sg20
g5
sg21
g5
sg22
I150656
sg23
g5
sg24
I750000
sg25
g7
sg26
I417619
sg27
g5
sg28
g5
sg29
F1.0
sg30
I417619
sg31
I261516
sg32
I1271582
sg33
g7
sg34
g5
sg35
g7
sg36
g7
ssS'OLSON CINDY K'
p220
(dp221
g3
I1184
sg4
I77716
sg6
F0.05880639276247638
sg8
F0.016891891891891893
sg9
I63791
sg10
F0.04826957898902582
sg11
I00
sg12
g5
sg13
S'cindy.olson@enron.com'
p222
sg15
I100000
sg16
F0.6925566343042071
sg17
g5
sg18
F2.279094925823057
sg19
I856
sg20
g5
sg21
I52
sg22
I972
sg23
g5
sg24
I750000
sg25
F0.28846153846153844
sg26
I2606763
sg27
I20
sg28
I15
sg29
F0.372005049941249
sg30
I969729
sg31
I329078
sg32
I1321557
sg33
g7
sg34
I1637034
sg35
g7
sg36
F0.6279949500587511
ssS'MCDONALD REBECCA'
p223
(dp224
g3
I894
sg4
g5
sg6
g7
sg8
F0.06040268456375839
sg9
g5
sg10
g7
sg11
I00
sg12
g5
sg13
S'rebecca.mcdonald@enron.com'
p225
sg15
g5
sg16
F0.7938257993384785
sg17
g5
sg18
g7
sg19
I720
sg20
g5
sg21
I13
sg22
g5
sg23
g5
sg24
g5
sg25
F0.07692307692307693
sg26
I1691366
sg27
I54
sg28
I1
sg29
F0.5522548046963224
sg30
I934065
sg31
g5
sg32
g5
sg33
g7
sg34
I757301
sg35
g7
sg36
F0.4477451953036776
ssS'CUMBERLAND MICHAEL S'
p226
(dp227
g3
g5
sg4
g5
sg6
g7
sg8
g7
sg9
I22344
sg10
F0.02765497131031888
sg11
I00
sg12
g5
sg13
g5
sg15
I275000
sg16
g7
sg17
g5
sg18
F1.7577163748857485
sg19
g5
sg20
g5
sg21
g5
sg22
I713
sg23
g5
sg24
I325000
sg25
g7
sg26
I207940
sg27
g5
sg28
g5
sg29
F1.0
sg30
I207940
sg31
I184899
sg32
I807956
sg33
g7
sg34
g5
sg35
g7
sg36
g7
ssS'GAHN ROBERT S'
p228
(dp229
g3
g5
sg4
I73122
sg6
F0.08119389063775213
sg8
g7
sg9
I50080
sg10
F0.055608299050061906
sg11
I00
sg12
I-1042
sg13
g5
sg15
g5
sg16
g7
sg17
g5
sg18
F2.6554622724053165
sg19
g5
sg20
g5
sg21
g5
sg22
I76547
sg23
g5
sg24
I509870
sg25
g7
sg26
I318607
sg27
g5
sg28
g5
sg29
F0.7387471085067183
sg30
I235370
sg31
I192008
sg32
I900585
sg33
g7
sg34
I83237
sg35
g7
sg36
F0.2612528914932817
ssS'MCCLELLAN GEORGE'
p230
(dp231
g3
I1744
sg4
g5
sg6
g7
sg8
F0.02981651376146789
sg9
I228763
sg10
F0.17346786344475845
sg11
I00
sg12
I-125000
sg13
S'george.mcclellan@enron.com'
p232
sg15
g5
sg16
F0.8192972671500279
sg17
g5
sg18
F3.4166878627858153
sg19
I1469
sg20
g5
sg21
I49
sg22
I51587
sg23
g5
sg24
I900000
sg25
F0.0
sg26
I947861
sg27
I52
sg28
I0
sg29
F0.46535937231302904
sg30
I441096
sg31
I263413
sg32
I1318763
sg33
g7
sg34
I506765
sg35
g7
sg36
F0.534640627686971
ssS'HERMANN ROBERT J'
p233
(dp234
g3
g5
sg4
g5
sg6
g7
sg8
g7
sg9
I48357
sg10
F0.0372704844307459
sg11
I00
sg12
I-280000
sg13
S'robert.hermann@enron.com'
p235
sg15
I150000
sg16
g7
sg17
g5
sg18
F2.665011821231007
sg19
g5
sg20
g5
sg21
g5
sg22
I416441
sg23
g5
sg24
I700000
sg25
g7
sg26
I668132
sg27
g5
sg28
g5
sg29
F0.7193668317039148
sg30
I480632
sg31
I262663
sg32
I1297461
sg33
g7
sg34
I187500
sg35
g7
sg36
F0.2806331682960852
ssS'SCRIMSHAW MATTHEW'
p236
(dp237
g3
g5
sg4
g5
sg6
g7
sg8
g7
sg9
g5
sg10
g7
sg11
I00
sg12
g5
sg13
S'matthew.scrimshaw@enron.com'
p238
sg15
g5
sg16
g7
sg17
g5
sg18
g7
sg19
g5
sg20
g5
sg21
g5
sg22
g5
sg23
g5
sg24
g5
sg25
g7
sg26
I759557
sg27
g5
sg28
g5
sg29
g7
sg30
g5
sg31
g5
sg32
g5
sg33
g7
sg34
I759557
sg35
g7
sg36
F1.0
ssS'GATHMANN WILLIAM D'
p239
(dp240
g3
g5
sg4
g5
sg6
g7
sg8
g7
sg9
g5
sg10
g7
sg11
I00
sg12
g5
sg13
g5
sg15
g5
sg16
g7
sg17
I-72419
sg18
g7
sg19
g5
sg20
g5
sg21
g5
sg22
g5
sg23
g5
sg24
g5
sg25
g7
sg26
I1945360
sg27
g5
sg28
g5
sg29
F0.13571421227947528
sg30
I264013
sg31
g5
sg32
g5
sg33
F-0.03722652876588395
sg34
I1753766
sg35
g7
sg36
F0.9015123164864087
ssS'HAEDICKE MARK E'
p241
(dp242
g3
I4009
sg4
I2157527
sg6
F0.5590802435304925
sg8
F0.04489897730107259
sg9
I76169
sg10
F0.019737682573369456
sg11
I00
sg12
I-934484
sg13
S'mark.haedicke@enron.com'
p243
sg15
I983346
sg16
F0.3104201680672269
sg17
I-329825
sg18
F3.073838957567658
sg19
I1847
sg20
g5
sg21
I1941
sg22
I52382
sg23
g5
sg24
I1150000
sg25
F0.03142709943328181
sg26
I803094
sg27
I180
sg28
I61
sg29
F0.6526869830928883
sg30
I524169
sg31
I374125
sg32
I3859065
sg33
F-0.41069289522770686
sg34
I608750
sg35
g7
sg36
F0.7580059121348186
ssS'BOWEN JR RAYMOND M'
p244
(dp245
g3
I1858
sg4
g5
sg6
g7
sg8
F0.07534983853606028
sg9
I65907
sg10
F0.024688069961331126
sg11
I01
sg12
I-833
sg13
S'raymond.bowen@enron.com'
p246
sg15
I974293
sg16
F0.8450928381962864
sg17
g5
sg18
F4.845639462887786
sg19
I1593
sg20
g5
sg21
I27
sg22
I1621
sg23
g5
sg24
I1350000
sg25
F0.5555555555555556
sg26
I252055
sg27
I140
sg28
I15
sg29
F1.0
sg30
I252055
sg31
I278601
sg32
I2669589
sg33
g7
sg34
g5
sg35
g7
sg36
g7
ssS'GILLIS JOHN'
p247
(dp248
g3
g5
sg4
g5
sg6
g7
sg8
g7
sg9
g5
sg10
g7
sg11
I00
sg12
g5
sg13
g5
sg15
g5
sg16
g7
sg17
g5
sg18
g7
sg19
g5
sg20
g5
sg21
g5
sg22
g5
sg23
g5
sg24
g5
sg25
g7
sg26
I85641
sg27
g5
sg28
g5
sg29
F0.8855337980640114
sg30
I75838
sg31
g5
sg32
g5
sg33
g7
sg34
I9803
sg35
g7
sg36
F0.11446620193598861
ssS'FITZGERALD JAY L'
p249
(dp250
g3
I936
sg4
g5
sg6
g7
sg8
F0.0010683760683760685
sg9
I23870
sg10
F0.01687096293123616
sg11
I00
sg12
g5
sg13
S'jay.fitzgerald@enron.com'
p251
sg15
I556416
sg16
F0.759453781512605
sg17
g5
sg18
F1.7574074724965731
sg19
I723
sg20
g5
sg21
I16
sg22
I285414
sg23
g5
sg24
I350000
sg25
F0.5
sg26
I1621236
sg27
I1
sg28
I8
sg29
F0.5901515880476377
sg30
I956775
sg31
I199157
sg32
I1414857
sg33
g7
sg34
I664461
sg35
g7
sg36
F0.40984841195236227
ssS'MORAN MICHAEL P'
p252
(dp253
g3
I672
sg4
g5
sg6
g7
sg8
F0.0
sg9
g5
sg10
g7
sg11
I00
sg12
g5
sg13
S'michael.moran@enron.com'
p254
sg15
g5
sg16
F0.1837916063675832
sg17
g5
sg18
g7
sg19
I127
sg20
g5
sg21
I19
sg22
g5
sg23
g5
sg24
g5
sg25
F0.0
sg26
I221141
sg27
I0
sg28
I0
sg29
F0.7307645348442848
sg30
I161602
sg31
g5
sg32
g5
sg33
g7
sg34
I59539
sg35
g7
sg36
F0.2692354651557151
ssS'REDMOND BRIAN L'
p255
(dp256
g3
I1671
sg4
g5
sg6
g7
sg8
F0.12208258527827648
sg9
I14689
sg10
F0.1317056550314268
sg11
I00
sg12
g5
sg13
S'brian.redmond@enron.com'
p257
sg15
g5
sg16
F0.5618393234672304
sg17
g5
sg18
g7
sg19
I1063
sg20
g5
sg21
I221
sg22
g5
sg23
g5
sg24
g5
sg25
F0.22171945701357465
sg26
I7890324
sg27
I204
sg28
I49
sg29
F0.048323110685949015
sg30
I381285
sg31
I96840
sg32
I111529
sg33
g7
sg34
I7509039
sg35
g7
sg36
F0.951676889314051
ssS'BAZELIDES PHILIP J'
p258
(dp259
g3
g5
sg4
I684694
sg6
F0.7960299301505809
sg8
g7
sg9
g5
sg10
g7
sg11
I00
sg12
g5
sg13
g5
sg15
I93750
sg16
g7
sg17
g5
sg18
g7
sg19
g5
sg20
g5
sg21
g5
sg22
I874
sg23
g5
sg24
g5
sg25
g7
sg26
I1599641
sg27
g5
sg28
g5
sg29
g7
sg30
g5
sg31
I80818
sg32
I860136
sg33
g7
sg34
I1599641
sg35
g7
sg36
F1.0
ssS'BELDEN TIMOTHY N'
p260
(dp261
g3
I7991
sg4
I2144013
sg6
F0.38970505104850744
sg8
F0.028532098610937303
sg9
I17355
sg10
F0.003154519660536968
sg11
I01
sg12
I-2334434
sg13
S'tim.belden@enron.com'
p262
sg15
g5
sg16
F0.6514454277286136
sg17
g5
sg18
F24.532820246823583
sg19
I5521
sg20
g5
sg21
I484
sg22
I210698
sg23
g5
sg24
I5249999
sg25
F0.2231404958677686
sg26
I1110705
sg27
I228
sg28
I108
sg29
F0.1418639512741907
sg30
I157569
sg31
I213999
sg32
I5501630
sg33
g7
sg34
I953136
sg35
g7
sg36
F0.8581360487258093
ssS'DURAN WILLIAM D'
p263
(dp264
g3
I904
sg4
g5
sg6
g7
sg8
F0.1172566371681416
sg9
I25785
sg10
F0.01231808903133529
sg11
I00
sg12
g5
sg13
S'w.duran@enron.com'
p265
sg15
I1105218
sg16
F0.6539301310043668
sg17
g5
sg18
F3.559698517266911
sg19
I599
sg20
g5
sg21
I12
sg22
I1568
sg23
g5
sg24
I750000
sg25
F0.25
sg26
I1640910
sg27
I106
sg28
I3
sg29
F0.11520497772577411
sg30
I189041
sg31
I210692
sg32
I2093263
sg33
g7
sg34
I1451869
sg35
g7
sg36
F0.8847950222742259
ssS'THORN TERENCE H'
p266
(dp267
g3
I266
sg4
I16586
sg6
F0.018197317908877363
sg8
F0.0
sg9
I46145
sg10
F0.050627953388710116
sg11
I00
sg12
g5
sg13
S'terence.thorn@enron.com'
p268
sg15
I200000
sg16
F0.23778501628664495
sg17
g5
sg18
g7
sg19
I73
sg20
g5
sg21
I41
sg22
I426629
sg23
g5
sg24
g5
sg25
F0.0
sg26
I4817796
sg27
I0
sg28
I0
sg29
F0.07582720397459751
sg30
I365320
sg31
I222093
sg32
I911453
sg33
g7
sg34
I4452476
sg35
g7
sg36
F0.9241727960254025
ssS'FASTOW ANDREW S'
p269
(dp270
g3
g5
sg4
g5
sg6
g7
sg8
g7
sg9
I55921
sg10
F0.02306892957048088
sg11
I01
sg12
I-1386055
sg13
S'andrew.fastow@enron.com'
p271
sg15
I1736055
sg16
g7
sg17
g5
sg18
F2.949865894558178
sg19
g5
sg20
g5
sg21
g5
sg22
I277464
sg23
g5
sg24
I1300000
sg25
g7
sg26
I1794412
sg27
g5
sg28
g5
sg29
F1.0
sg30
I1794412
sg31
I440698
sg32
I2424083
sg33
g7
sg34
g5
sg35
g7
sg36
g7
ssS'FOY JOE'
p272
(dp273
g3
I57
sg4
I181755
sg6
F1.0
sg8
F0.0
sg9
g5
sg10
g7
sg11
I00
sg12
g5
sg13
S'tracy.foy@enron.com'
p274
sg15
g5
sg16
F0.02857142857142857
sg17
g5
sg18
g7
sg19
I2
sg20
g5
sg21
I13
sg22
g5
sg23
g5
sg24
g5
sg25
F0.0
sg26
I343434
sg27
I0
sg28
I0
sg29
g7
sg30
g5
sg31
g5
sg32
I181755
sg33
g7
sg34
I343434
sg35
g7
sg36
F1.0
ssS'CALGER CHRISTOPHER F'
p275
(dp276
g3
I2598
sg4
g5
sg6
g7
sg8
F0.07659738260200154
sg9
I35818
sg10
F0.021849609924254117
sg11
I01
sg12
I-262500
sg13
S'christopher.calger@enron.com'
p277
sg15
I375304
sg16
F0.7979576951130561
sg17
g5
sg18
F5.204234998272194
sg19
I2188
sg20
g5
sg21
I144
sg22
I486
sg23
g5
sg24
I1250000
sg25
F0.1736111111111111
sg26
I126027
sg27
I199
sg28
I25
sg29
F1.0
sg30
I126027
sg31
I240189
sg32
I1639297
sg33
g7
sg34
g5
sg35
g7
sg36
g7
ssS'RICE KENNETH D'
p278
(dp279
g3
I905
sg4
g5
sg6
g7
sg8
F0.04640883977900553
sg9
I46950
sg10
F0.09296109296109296
sg11
I01
sg12
I-3504386
sg13
S'ken.rice@enron.com'
p280
sg15
I1617011
sg16
F0.9360780065005417
sg17
g5
sg18
F4.160366682832663
sg19
I864
sg20
g5
sg21
I18
sg22
I174839
sg23
g5
sg24
I1750000
sg25
F0.2222222222222222
sg26
I22542539
sg27
I42
sg28
I4
sg29
F0.12191900832466121
sg30
I2748364
sg31
I420636
sg32
I505050
sg33
g7
sg34
I19794175
sg35
g7
sg36
F0.8780809916753388
ssS'KAMINSKI WINCENTY J'
p281
(dp282
g3
I4607
sg4
g5
sg6
g7
sg8
F0.008899500759713479
sg9
I83585
sg10
F0.07690778886311546
sg11
I00
sg12
g5
sg13
S'vince.kaminski@enron.com'
p283
sg15
I323466
sg16
F0.03072463768115942
sg17
g5
sg18
F1.4540114357999425
sg19
I583
sg20
g5
sg21
I14368
sg22
I4669
sg23
g5
sg24
I400000
sg25
F0.011901447661469933
sg26
I976037
sg27
I41
sg28
I171
sg29
F0.12912112962930708
sg30
I126027
sg31
I275101
sg32
I1086821
sg33
g7
sg34
I850010
sg35
g7
sg36
F0.8708788703706929
ssS'LOCKHART EUGENE E'
p284
(dp285
g3
g5
sg4
g5
sg6
g7
sg8
g7
sg9
g5
sg10
g7
sg11
I00
sg12
g5
sg13
g5
sg15
g5
sg16
g7
sg17
g5
sg18
g7
sg19
g5
sg20
g5
sg21
g5
sg22
g5
sg23
g5
sg24
g5
sg25
g7
sg26
g5
sg27
g5
sg28
g5
sg29
g7
sg30
g5
sg31
g5
sg32
g5
sg33
g7
sg34
g5
sg35
g7
sg36
g7
ssS'COX DAVID'
p286
(dp287
g3
I102
sg4
g5
sg6
g7
sg8
F0.0
sg9
I27861
sg10
F0.025296147696598763
sg11
I00
sg12
I-41250
sg13
S'chip.cox@enron.com'
p288
sg15
g5
sg16
F0.5259259259259259
sg17
g5
sg18
F2.5454360331924857
sg19
I71
sg20
g5
sg21
I33
sg22
I494
sg23
g5
sg24
I800000
sg25
F0.12121212121212122
sg26
I495633
sg27
I0
sg28
I4
sg29
F0.7628265268858208
sg30
I378082
sg31
I314288
sg32
I1101393
sg33
g7
sg34
I117551
sg35
g7
sg36
F0.23717347311417925
ssS'OVERDYKE JR JERE C'
p289
(dp290
g3
g5
sg4
g5
sg6
g7
sg8
g7
sg9
I18834
sg10
F0.07540024100533654
sg11
I00
sg12
g5
sg13
S'jere.overdyke@enron.com'
p291
sg15
I135836
sg16
g7
sg17
g5
sg18
g7
sg19
g5
sg20
g5
sg21
g5
sg22
I176
sg23
g5
sg24
g5
sg25
g7
sg26
I7307594
sg27
g5
sg28
g5
sg29
F0.2793006836449863
sg30
I2041016
sg31
I94941
sg32
I249787
sg33
g7
sg34
I5266578
sg35
g7
sg36
F0.7206993163550137
ssS'PEREIRA PAULO V. FERRAZ'
p292
(dp293
g3
g5
sg4
g5
sg6
g7
sg8
g7
sg9
I27942
sg10
F1.0
sg11
I00
sg12
I-101250
sg13
g5
sg15
g5
sg16
g7
sg17
g5
sg18
g7
sg19
g5
sg20
g5
sg21
g5
sg22
g5
sg23
I101250
sg24
g5
sg25
g7
sg26
g5
sg27
g5
sg28
g5
sg29
g7
sg30
g5
sg31
g5
sg32
I27942
sg33
g7
sg34
g5
sg35
F3.623577410350011
sg36
g7
ssS'STABLER FRANK'
p294
(dp295
g3
g5
sg4
g5
sg6
g7
sg8
g7
sg9
I16514
sg10
F0.01484955763353047
sg11
I00
sg12
g5
sg13
S'frank.stabler@enron.com'
p296
sg15
g5
sg16
g7
sg17
g5
sg18
F2.0876652387036434
sg19
g5
sg20
g5
sg21
g5
sg22
I356071
sg23
g5
sg24
I500000
sg25
g7
sg26
I511734
sg27
g5
sg28
g5
sg29
F1.0
sg30
I511734
sg31
I239502
sg32
I1112087
sg33
g7
sg34
g5
sg35
g7
sg36
g7
ssS'SKILLING JEFFREY K'
p297
(dp298
g3
I3627
sg4
g5
sg6
g7
sg8
F0.0242624758753791
sg9
I29336
sg10
F0.003378666306717852
sg11
I01
sg12
g5
sg13
S'jeff.skilling@enron.com'
p299
sg15
I1920000
sg16
F0.5467202141900938
sg17
g5
sg18
F5.03933380007163
sg19
I2042
sg20
g5
sg21
I108
sg22
I22122
sg23
g5
sg24
I5600000
sg25
F0.2777777777777778
sg26
I26093672
sg27
I88
sg28
I30
sg29
F0.2622732438730739
sg30
I6843672
sg31
I1111258
sg32
I8682716
sg33
g7
sg34
I19250000
sg35
g7
sg36
F0.7377267561269261
ssS'BLAKE JR. NORMAN P'
p300
(dp301
g3
g5
sg4
g5
sg6
g7
sg8
g7
sg9
I1279
sg10
F1.0
sg11
I00
sg12
I-113784
sg13
g5
sg15
g5
sg16
g7
sg17
g5
sg18
g7
sg19
g5
sg20
g5
sg21
g5
sg22
g5
sg23
I113784
sg24
g5
sg25
g7
sg26
g5
sg27
g5
sg28
g5
sg29
g7
sg30
g5
sg31
g5
sg32
I1279
sg33
g7
sg34
g5
sg35
F88.9632525410477
sg36
g7
ssS'SHERRICK JEFFREY B'
p302
(dp303
g3
I613
sg4
g5
sg6
g7
sg8
F0.0636215334420881
sg9
g5
sg10
g7
sg11
I00
sg12
g5
sg13
S'jeffrey.sherrick@enron.com'
p304
sg15
g5
sg16
F0.9137931034482759
sg17
g5
sg18
g7
sg19
I583
sg20
g5
sg21
I25
sg22
g5
sg23
g5
sg24
g5
sg25
F0.72
sg26
I1832468
sg27
I39
sg28
I18
sg29
F0.22155857564770573
sg30
I405999
sg31
g5
sg32
g5
sg33
g7
sg34
I1426469
sg35
g7
sg36
F0.7784414243522942
ssS'PRENTICE JAMES'
p305
(dp306
g3
g5
sg4
I564348
sg6
F1.0
sg8
g7
sg9
g5
sg10
g7
sg11
I00
sg12
g5
sg13
S'james.prentice@enron.com'
p307
sg15
g5
sg16
g7
sg17
g5
sg18
g7
sg19
g5
sg20
g5
sg21
g5
sg22
g5
sg23
g5
sg24
g5
sg25
g7
sg26
I1095040
sg27
g5
sg28
g5
sg29
F0.19068618497954412
sg30
I208809
sg31
g5
sg32
I564348
sg33
g7
sg34
I886231
sg35
g7
sg36
F0.8093138150204559
ssS'GRAY RODNEY'
p308
(dp309
g3
g5
sg4
I93585
sg6
F0.08161544244229753
sg8
g7
sg9
g5
sg10
g7
sg11
I00
sg12
g5
sg13
g5
sg15
I365625
sg16
g7
sg17
g5
sg18
g7
sg19
g5
sg20
g5
sg21
g5
sg22
I680833
sg23
g5
sg24
g5
sg25
g7
sg26
g5
sg27
g5
sg28
g5
sg29
g7
sg30
g5
sg31
I6615
sg32
I1146658
sg33
g7
sg34
g5
sg35
g7
sg36
g7
ssS'PICKERING MARK R'
p310
(dp311
g3
I898
sg4
g5
sg6
g7
sg8
F0.0077951002227171495
sg9
I31653
sg10
F0.022826298595937086
sg11
I00
sg12
g5
sg13
S'mark.pickering@enron.com'
p312
sg15
g5
sg16
F0.7544041450777202
sg17
g5
sg18
F0.45798939601885086
sg19
I728
sg20
I400000
sg21
I67
sg22
g5
sg23
g5
sg24
I300000
sg25
F0.0
sg26
I28798
sg27
I7
sg28
I0
sg29
g7
sg30
g5
sg31
I655037
sg32
I1386690
sg33
g7
sg34
I28798
sg35
g7
sg36
F1.0
ssS'NOLES JAMES L'
p313
(dp314
g3
g5
sg4
I774401
sg6
F1.0
sg8
g7
sg9
g5
sg10
g7
sg11
I00
sg12
g5
sg13
g5
sg15
g5
sg16
g7
sg17
I-94556
sg18
g7
sg19
g5
sg20
g5
sg21
g5
sg22
g5
sg23
g5
sg24
g5
sg25
g7
sg26
I368705
sg27
g5
sg28
g5
sg29
F1.2564543469711558
sg30
I463261
sg31
g5
sg32
I774401
sg33
F-0.2564543469711558
sg34
g5
sg35
g7
sg36
g7
ssS'KEAN STEVEN J'
p315
(dp316
g3
I12754
sg4
g5
sg6
g7
sg8
F0.010976948408342482
sg9
I41953
sg10
F0.02400713696308258
sg11
I00
sg12
g5
sg13
S'steven.kean@enron.com'
p317
sg15
I300000
sg16
F0.1864910572438887
sg17
g5
sg18
F2.473178380463869
sg19
I3639
sg20
g5
sg21
I6759
sg22
I1231
sg23
g5
sg24
I1000000
sg25
F0.05725699067909454
sg26
I6153642
sg27
I140
sg28
I387
sg29
F0.6714062989039662
sg30
I4131594
sg31
I404338
sg32
I1747522
sg33
g7
sg34
I2022048
sg35
g7
sg36
F0.32859370109603386
ssS'FOWLER PEGGY'
p318
(dp319
g3
I517
sg4
g5
sg6
g7
sg8
F0.0
sg9
g5
sg10
g7
sg11
I00
sg12
g5
sg13
S'kulvinder.fowler@enron.com'
p320
sg15
g5
sg16
F0.018083182640144666
sg17
g5
sg18
g7
sg19
I10
sg20
g5
sg21
I36
sg22
g5
sg23
g5
sg24
g5
sg25
F0.0
sg26
I1884748
sg27
I0
sg28
I0
sg29
F0.29721214719421374
sg30
I560170
sg31
g5
sg32
g5
sg33
g7
sg34
I1324578
sg35
g7
sg36
F0.7027878528057863
ssS'WASAFF GEORGE'
p321
(dp322
g3
I400
sg4
I831299
sg6
F0.8036572102533365
sg8
F0.055
sg9
g5
sg10
g7
sg11
I00
sg12
I-583325
sg13
S'george.wasaff@enron.com'
p323
sg15
I200000
sg16
F0.7837209302325582
sg17
g5
sg18
F1.2500192310650933
sg19
I337
sg20
g5
sg21
I30
sg22
I1425
sg23
g5
sg24
I325000
sg25
F0.23333333333333334
sg26
I2056427
sg27
I22
sg28
I7
sg29
F0.1887579768209618
sg30
I388167
sg31
I259996
sg32
I1034395
sg33
g7
sg34
I1668260
sg35
g7
sg36
F0.8112420231790382
ssS'WHITE JR THOMAS E'
p324
(dp325
g3
g5
sg4
g5
sg6
g7
sg8
g7
sg9
I81353
sg10
F0.042056826059692125
sg11
I00
sg12
g5
sg13
S'thomas.white@enron.com'
p326
sg15
g5
sg16
g7
sg17
g5
sg18
F1.417130908254945
sg19
g5
sg20
g5
sg21
g5
sg22
I1085463
sg23
g5
sg24
I450000
sg25
g7
sg26
I15144123
sg27
g5
sg28
g5
sg29
F0.9143529803607644
sg30
I13847074
sg31
I317543
sg32
I1934359
sg33
g7
sg34
I1297049
sg35
g7
sg36
F0.08564701963923563
ssS'CHRISTODOULOU DIOMEDES'
p327
(dp328
g3
g5
sg4
g5
sg6
g7
sg8
g7
sg9
g5
sg10
g7
sg11
I00
sg12
g5
sg13
S'diomedes.christodoulou@enron.com'
p329
sg15
g5
sg16
g7
sg17
g5
sg18
g7
sg19
g5
sg20
g5
sg21
g5
sg22
g5
sg23
g5
sg24
g5
sg25
g7
sg26
I6077885
sg27
g5
sg28
g5
sg29
F0.15642447989720107
sg30
I950730
sg31
g5
sg32
g5
sg33
g7
sg34
I5127155
sg35
g7
sg36
F0.8435755201027989
ssS'ALLEN PHILLIP K'
p330
(dp331
g3
I2902
sg4
I2869717
sg6
F0.6399273309812012
sg8
F0.016195727084769126
sg9
I13868
sg10
F0.0030924694755780093
sg11
I00
sg12
I-3081055
sg13
S'phillip.allen@enron.com'
p332
sg15
I304805
sg16
F0.27604473219540904
sg17
I-126027
sg18
F20.672922185635414
sg19
I1407
sg20
g5
sg21
I2195
sg22
I152
sg23
g5
sg24
I4175000
sg25
F0.029612756264236904
sg26
I1729541
sg27
I47
sg28
I65
sg29
F0.07286730988163911
sg30
I126027
sg31
I201955
sg32
I4484442
sg33
F-0.07286730988163911
sg34
I1729541
sg35
g7
sg36
F1.0
ssS'SHARP VICTORIA T'
p333
(dp334
g3
I3136
sg4
I187469
sg6
F0.1189138547082767
sg8
F0.007653061224489796
sg9
I116337
sg10
F0.07379396655018582
sg11
I00
sg12
g5
sg13
S'vicki.sharp@enron.com'
p335
sg15
I422158
sg16
F0.7570293398533008
sg17
g5
sg18
F2.417931379107461
sg19
I2477
sg20
g5
sg21
I136
sg22
I2401
sg23
g5
sg24
I600000
sg25
F0.04411764705882353
sg26
I494136
sg27
I24
sg28
I6
sg29
F0.43118291320608093
sg30
I213063
sg31
I248146
sg32
I1576511
sg33
g7
sg34
I281073
sg35
g7
sg36
F0.5688170867939191
ssS'JAEDICKE ROBERT'
p336
(dp337
g3
g5
sg4
g5
sg6
g7
sg8
g7
sg9
g5
sg10
g7
sg11
I00
sg12
I-25000
sg13
g5
sg15
g5
sg16
g7
sg17
I-44093
sg18
g7
sg19
g5
sg20
g5
sg21
g5
sg22
g5
sg23
I108750
sg24
g5
sg25
g7
sg26
I431750
sg27
g5
sg28
g5
sg29
F0.10212623045744065
sg30
I44093
sg31
g5
sg32
I83750
sg33
F-0.10212623045744065
sg34
I431750
sg35
F1.2985074626865671
sg36
F1.0
ssS'WINOKUR JR. HERBERT S'
p338
(dp339
g3
g5
sg4
g5
sg6
g7
sg8
g7
sg9
I1413
sg10
F0.016625094126506024
sg11
I00
sg12
I-25000
sg13
g5
sg15
g5
sg16
g7
sg17
g5
sg18
g7
sg19
g5
sg20
g5
sg21
g5
sg22
g5
sg23
I108579
sg24
g5
sg25
g7
sg26
g5
sg27
g5
sg28
g5
sg29
g7
sg30
g5
sg31
g5
sg32
I84992
sg33
g7
sg34
g5
sg35
F1.2775202371987953
sg36
g7
ssS'BROWN MICHAEL'
p340
(dp341
g3
I1486
sg4
g5
sg6
g7
sg8
F0.008748317631224764
sg9
I49288
sg10
F1.0
sg11
I00
sg12
g5
sg13
S'michael.brown@enron.com'
p342
sg15
g5
sg16
F0.49836280288146695
sg17
g5
sg18
g7
sg19
I761
sg20
g5
sg21
I41
sg22
g5
sg23
g5
sg24
g5
sg25
F0.024390243902439025
sg26
g5
sg27
I13
sg28
I1
sg29
g7
sg30
g5
sg31
g5
sg32
I49288
sg33
g7
sg34
g5
sg35
g7
sg36
g7
ssS'BADUM JAMES P'
p343
(dp344
g3
g5
sg4
I178980
sg6
F0.9808950708625168
sg8
g7
sg9
I3486
sg10
F0.019104929137483146
sg11
I00
sg12
g5
sg13
g5
sg15
g5
sg16
g7
sg17
g5
sg18
g7
sg19
g5
sg20
g5
sg21
g5
sg22
g5
sg23
g5
sg24
g5
sg25
g7
sg26
I257817
sg27
g5
sg28
g5
sg29
g7
sg30
g5
sg31
g5
sg32
I182466
sg33
g7
sg34
I257817
sg35
g7
sg36
F1.0
ssS'HUGHES JAMES A'
p345
(dp346
g3
I719
sg4
g5
sg6
g7
sg8
F0.048678720445062586
sg9
g5
sg10
g7
sg11
I00
sg12
g5
sg13
S'james.hughes@enron.com'
p347
sg15
g5
sg16
F0.7822045152722443
sg17
g5
sg18
g7
sg19
I589
sg20
g5
sg21
I34
sg22
g5
sg23
g5
sg24
g5
sg25
F0.14705882352941177
sg26
I1118394
sg27
I35
sg28
I5
sg29
F0.3249552483293008
sg30
I363428
sg31
g5
sg32
g5
sg33
g7
sg34
I754966
sg35
g7
sg36
F0.6750447516706992
ssS'REYNOLDS LAWRENCE'
p348
(dp349
g3
g5
sg4
I51365
sg6
F0.13021103998985994
sg8
g7
sg9
I8409
sg10
F0.021316940237023893
sg11
I00
sg12
I-200000
sg13
g5
sg15
I156250
sg16
g7
sg17
I-140264
sg18
F1.3089176559902616
sg19
g5
sg20
g5
sg21
g5
sg22
I202052
sg23
g5
sg24
I100000
sg25
g7
sg26
I4221891
sg27
g5
sg28
g5
sg29
F0.047723401670009956
sg30
I201483
sg31
I76399
sg32
I394475
sg33
F-0.033223027311695165
sg34
I4160672
sg35
g7
sg36
F0.9854996256416853
ssS'DIMICHELE RICHARD G'
p350
(dp351
g3
g5
sg4
g5
sg6
g7
sg8
g7
sg9
I35812
sg10
F0.015122346505776025
sg11
I00
sg12
g5
sg13
S'richard.dimichele@enron.com'
p352
sg15
I694862
sg16
g7
sg17
g5
sg18
F3.8053487982708494
sg19
g5
sg20
g5
sg21
g5
sg22
I374689
sg23
g5
sg24
I1000000
sg25
g7
sg26
I8317782
sg27
g5
sg28
g5
sg29
F0.015151515151515152
sg30
I126027
sg31
I262788
sg32
I2368151
sg33
g7
sg34
I8191755
sg35
g7
sg36
F0.9848484848484849
ssS'BHATNAGAR SANJAY'
p353
(dp354
g3
I523
sg4
g5
sg6
g7
sg8
F0.0
sg9
g5
sg10
g7
sg11
I00
sg12
g5
sg13
S'sanjay.bhatnagar@enron.com'
p355
sg15
g5
sg16
F0.8387681159420289
sg17
I15456290
sg18
g7
sg19
I463
sg20
g5
sg21
I29
sg22
I137864
sg23
I137864
sg24
g5
sg25
F0.034482758620689655
sS'total_stock_value'
p356
S'NaN'
p357
sg27
I0
sg28
I1
sg29
g7
sg30
I-2604490
sg31
g5
sg32
I15456290
sg33
g7
sg34
I2604490
sg35
F0.00891960489871761
sg36
g7
ssS'CARTER REBECCA C'
p358
(dp359
g3
I312
sg4
g5
sg6
g7
sg8
F0.09294871794871795
sg9
g5
sg10
g7
sg11
I00
sg12
I-159792
sg13
S'rebecca.carter@enron.com'
p360
sg15
I75000
sg16
F0.599388379204893
sg17
I-307301
sg18
F1.14587351848103
sg19
I196
sg20
g5
sg21
I15
sg22
I540
sg23
g5
sg24
I300000
sg25
F0.4666666666666667
sg26
g5
sg27
I29
sg28
I7
sg29
g7
sg30
I307301
sg31
I261809
sg32
I477557
sg33
g7
sg34
g5
sg35
g7
sg36
g7
ssS'BUCHANAN HAROLD G'
p361
(dp362
g3
I1088
sg4
g5
sg6
g7
sg8
F0.0
sg9
I600
sg10
F0.000568916129436005
sg11
I00
sg12
g5
sg13
S'john.buchanan@enron.com'
p363
sg15
I304805
sg16
F0.018961253091508656
sg17
g5
sg18
F2.015990839337626
sg19
I23
sg20
g5
sg21
I125
sg22
I1215
sg23
g5
sg24
I500000
sg25
F0.0
sg26
I1014505
sg27
I0
sg28
I0
sg29
F0.18633816491786634
sg30
I189041
sg31
I248017
sg32
I1054637
sg33
g7
sg34
I825464
sg35
g7
sg36
F0.8136618350821336
ssS'YEAP SOON'
p364
(dp365
g3
g5
sg4
g5
sg6
g7
sg8
g7
sg9
I55097
sg10
F1.0
sg11
I00
sg12
g5
sg13
g5
sg15
g5
sg16
g7
sg17
g5
sg18
g7
sg19
g5
sg20
g5
sg21
g5
sg22
g5
sg23
g5
sg24
g5
sg25
g7
sg26
I192758
sg27
g5
sg28
g5
sg29
g7
sg30
g5
sg31
g5
sg32
I55097
sg33
g7
sg34
I192758
sg35
g7
sg36
F1.0
ssS'MURRAY JULIA H'
p366
(dp367
g3
I2192
sg4
g5
sg6
g7
sg8
F0.005018248175182482
sg9
I57580
sg10
F0.07089439222648776
sg11
I00
sg12
g5
sg13
S'julia.murray@enron.com'
p368
sg15
I125000
sg16
F0.17657577112203846
sg17
g5
sg18
F1.744561330053558
sg19
I395
sg20
g5
sg21
I45
sg22
I330
sg23
g5
sg24
I400000
sg25
F0.044444444444444446
sg26
I597461
sg27
I11
sg28
I2
sg29
F0.3297001812670618
sg30
I196983
sg31
I229284
sg32
I812194
sg33
g7
sg34
I400478
sg35
g7
sg36
F0.6702998187329382
ssS'GARLAND C KEVIN'
p369
(dp370
g3
I209
sg4
g5
sg6
g7
sg8
F0.04784688995215311
sg9
I48405
sg10
F0.03090070725944784
sg11
I00
sg12
g5
sg13
S'kevin.garland@enron.com'
p371
sg15
I375304
sg16
F0.7035573122529645
sg17
g5
sg18
F3.6646460814155017
sg19
I178
sg20
g5
sg21
I44
sg22
I60814
sg23
g5
sg24
I850000
sg25
F0.6136363636363636
sg26
I896153
sg27
I10
sg28
I27
sg29
F0.2900252523843585
sg30
I259907
sg31
I231946
sg32
I1566469
sg33
g7
sg34
I636246
sg35
g7
sg36
F0.7099747476156415
ssS'DODSON KEITH'
p372
(dp373
g3
I176
sg4
g5
sg6
g7
sg8
F0.056818181818181816
sg9
I28164
sg10
F0.08802873029714854
sg11
I00
sg12
g5
sg13
S'keith.dodson@enron.com'
p374
sg15
g5
sg16
F0.6
sg17
g5
sg18
F0.3167377818400655
sg19
I114
sg20
g5
sg21
I14
sg22
I774
sg23
g5
sg24
I70000
sg25
F0.21428571428571427
sg26
g5
sg27
I10
sg28
I3
sg29
g7
sg30
g5
sg31
I221003
sg32
I319941
sg33
g7
sg34
g5
sg35
g7
sg36
g7
ssS'YEAGER F SCOTT'
p375
(dp376
g3
g5
sg4
g5
sg6
g7
sg8
g7
sg9
I53947
sg10
F0.14972800444074383
sg11
I01
sg12
g5
sg13
S'scott.yeager@enron.com'
p377
sg15
g5
sg16
g7
sg17
g5
sg18
g7
sg19
g5
sg20
g5
sg21
g5
sg22
I147950
sg23
g5
sg24
g5
sg25
g7
sg26
I11884758
sg27
g5
sg28
g5
sg29
F0.30090692633371247
sg30
I3576206
sg31
I158403
sg32
I360300
sg33
g7
sg34
I8308552
sg35
g7
sg36
F0.6990930736662875
ssS'HIRKO JOSEPH'
p378
(dp379
g3
g5
sg4
I10259
sg6
F0.1126211673783935
sg8
g7
sg9
I77978
sg10
F0.8560262588782892
sg11
I01
sg12
g5
sg13
S'joe.hirko@enron.com'
p380
sg15
g5
sg16
g7
sg17
g5
sg18
g7
sg19
g5
sg20
g5
sg21
g5
sg22
I2856
sg23
g5
sg24
g5
sg25
g7
sg26
I30766064
sg27
g5
sg28
g5
sg29
g7
sg30
g5
sg31
g5
sg32
I91093
sg33
g7
sg34
I30766064
sg35
g7
sg36
F1.0
ssS'DIETRICH JANET R'
p381
(dp382
g3
I2572
sg4
g5
sg6
g7
sg8
F0.11858475894245724
sg9
I3475
sg10
F0.0024637282482927606
sg11
I00
sg12
g5
sg13
S'janet.dietrich@enron.com'
p383
sg15
I556416
sg16
F0.7218216318785579
sg17
g5
sg18
F2.3990403838464616
sg19
I1902
sg20
g5
sg21
I63
sg22
I473
sg23
g5
sg24
I600000
sg25
F0.2222222222222222
sg26
I1865087
sg27
I305
sg28
I14
sg29
F0.16892938506353858
sg30
I315068
sg31
I250100
sg32
I1410464
sg33
g7
sg34
I1550019
sg35
g7
sg36
F0.8310706149364614
ssS'DERRICK JR. JAMES V'
p384
(dp385
g3
I2181
sg4
g5
sg6
g7
sg8
F0.029344337459880788
sg9
I51124
sg10
F0.09278722859771935
sg11
I00
sg12
I-1284000
sg13
S'james.derrick@enron.com'
p386
sg15
I484000
sg16
F0.4533980582524272
sg17
I-1787380
sg18
F1.6247778624016247
sg19
I1401
sg20
g5
sg21
I909
sg22
I7482
sg23
g5
sg24
I800000
sg25
F0.022002200220022004
sg26
I8831913
sg27
I64
sg28
I20
sg29
F0.20237744642638578
sg30
I1787380
sg31
I492375
sg32
I550981
sg33
F-0.20237744642638578
sg34
I8831913
sg35
g7
sg36
F1.0
ssS'FREVERT MARK A'
p387
(dp388
g3
I3275
sg4
I6426990
sg6
F0.37252449350906797
sg8
F0.07389312977099237
sg9
I86987
sg10
F0.005041985146526336
sg11
I00
sg12
I-3367011
sg13
S'mark.frevert@enron.com'
p389
sg15
I1617011
sg16
F0.9038228155339806
sg17
g5
sg18
F1.885134956811558
sg19
I2979
sg20
I2000000
sg21
I21
sg22
I7427621
sg23
g5
sg24
I2000000
sg25
F0.2857142857142857
sg26
I14622185
sg27
I242
sg28
I6
sg29
F0.28645971857147207
sg30
I4188667
sg31
I1060932
sg32
I17252530
sg33
g7
sg34
I10433518
sg35
g7
sg36
F0.713540281428528
ssS'PAI LOU L'
p390
(dp391
g3
g5
sg4
g5
sg6
g7
sg8
g7
sg9
I32047
sg10
F0.01026034911504609
sg11
I00
sg12
g5
sg13
S'lou.pai@enron.com'
p392
sg15
g5
sg16
g7
sg17
g5
sg18
F3.8185574253758414
sg19
g5
sg20
g5
sg21
g5
sg22
I1829457
sg23
g5
sg24
I1000000
sg25
g7
sg26
I23817930
sg27
g5
sg28
g5
sg29
F0.35493273344912846
sg30
I8453763
sg31
I261879
sg32
I3123383
sg33
g7
sg34
I15364167
sg35
g7
sg36
F0.6450672665508715
ssS'BAY FRANKLIN R'
p393
(dp394
g3
g5
sg4
I260455
sg6
F0.3146747114882759
sg8
g7
sg9
I129142
sg10
F0.15602588389940267
sg11
I00
sg12
I-201641
sg13
S'frank.bay@enron.com'
p395
sg15
g5
sg16
g7
sg17
I-82782
sg18
F1.6689545251615756
sg19
g5
sg20
g5
sg21
g5
sg22
I69
sg23
g5
sg24
I400000
sg25
g7
sg26
I63014
sg27
g5
sg28
g5
sg29
F2.3137080648744726
sg30
I145796
sg31
I239671
sg32
I827696
sg33
F-1.3137080648744723
sg34
g5
sg35
g7
sg36
g7
ssS'HAYSLETT RODERICK J'
p396
(dp397
g3
I2649
sg4
g5
sg6
g7
sg8
F0.01321253303133258
sg9
g5
sg10
g7
sg11
I00
sg12
g5
sg13
S'rod.hayslett@enron.com'
p398
sg15
g5
sg16
F0.15390835579514825
sg17
g5
sg18
g7
sg19
I571
sg20
g5
sg21
I1061
sg22
g5
sg23
g5
sg24
g5
sg25
F0.03581526861451461
sg26
I346663
sg27
I35
sg28
I38
sg29
F1.0
sg30
I346663
sg31
g5
sg32
g5
sg33
g7
sg34
g5
sg35
g7
sg36
g7
ssS'FUGH JOHN L'
p399
(dp400
g3
g5
sg4
I50591
sg6
F1.0
sg8
g7
sg9
g5
sg10
g7
sg11
I00
sg12
g5
sg13
g5
sg15
g5
sg16
g7
sg17
g5
sg18
g7
sg19
g5
sg20
g5
sg21
g5
sg22
g5
sg23
g5
sg24
g5
sg25
g7
sg26
I176378
sg27
g5
sg28
g5
sg29
g7
sg30
g5
sg31
g5
sg32
I50591
sg33
g7
sg34
I176378
sg35
g7
sg36
F1.0
ssS'FALLON JAMES B'
p401
(dp402
g3
I1755
sg4
g5
sg6
g7
sg8
F0.023931623931623933
sg9
I95924
sg10
F0.026092254796890386
sg11
I00
sg12
g5
sg13
S'jim.fallon@enron.com'
p403
sg15
I374347
sg16
F0.8765027322404372
sg17
g5
sg18
F8.207808580771403
sg19
I1604
sg20
g5
sg21
I75
sg22
I401481
sg23
g5
sg24
I2500000
sg25
F0.49333333333333335
sg26
I2332399
sg27
I42
sg28
I37
sg29
F0.5968712900322801
sg30
I1392142
sg31
I304588
sg32
I3676340
sg33
g7
sg34
I940257
sg35
g7
sg36
F0.40312870996771993
ssS'KOENIG MARK E'
p404
(dp405
g3
I2374
sg4
g5
sg6
g7
sg8
F0.02232518955349621
sg9
I127017
sg10
F0.08001469049483408
sg11
I01
sg12
g5
sg13
S'mark.koenig@enron.com'
p406
sg15
I300000
sg16
F0.9326488706365503
sg17
g5
sg18
F2.2584579249288588
sg19
I2271
sg20
g5
sg21
I61
sg22
I150458
sg23
g5
sg24
I700000
sg25
F0.2459016393442623
sg26
I1920055
sg27
I53
sg28
I15
sg29
F0.6501470009973672
sg30
I1248318
sg31
I309946
sg32
I1587421
sg33
g7
sg34
I671737
sg35
g7
sg36
F0.3498529990026327
ssS'SAVAGE FRANK'
p407
(dp408
g3
g5
sg4
g5
sg6
g7
sg8
g7
sg9
g5
sg10
g7
sg11
I00
sg12
I-121284
sg13
g5
sg15
g5
sg16
g7
sg17
g5
sg18
g7
sg19
g5
sg20
g5
sg21
g5
sg22
g5
sg23
I125034
sg24
g5
sg25
g7
sg26
g5
sg27
g5
sg28
g5
sg29
g7
sg30
g5
sg31
g5
sg32
I3750
sg33
g7
sg34
g5
sg35
F33.3424
sg36
g7
ssS'IZZO LAWRENCE L'
p409
(dp410
g3
I496
sg4
g5
sg6
g7
sg8
F0.056451612903225805
sg9
I28093
sg10
F0.014191279432773152
sg11
I00
sg12
g5
sg13
S'larry.izzo@enron.com'
p411
sg15
I312500
sg16
F0.8485436893203884
sg17
g5
sg18
g7
sg19
I437
sg20
g5
sg21
I19
sg22
I1553729
sg23
g5
sg24
g5
sg25
F0.2631578947368421
sg26
I5819980
sg27
I28
sg28
I5
sg29
F0.6279760411547806
sg30
I3654808
sg31
I85274
sg32
I1979596
sg33
g7
sg34
I2165172
sg35
g7
sg36
F0.3720239588452194
ssS'TILNEY ELIZABETH A'
p412
(dp413
g3
I460
sg4
g5
sg6
g7
sg8
F0.021739130434782608
sg9
g5
sg10
g7
sg11
I00
sg12
I-575000
sg13
S'elizabeth.tilney@enron.com'
p414
sg15
I275000
sg16
F0.791231732776618
sg17
g5
sg18
F1.2129151201998885
sg19
I379
sg20
g5
sg21
I19
sg22
I152055
sg23
g5
sg24
I300000
sg25
F0.5789473684210527
sg26
I1168042
sg27
I10
sg28
I11
sg29
F0.4938110102205229
sg30
I576792
sg31
I247338
sg32
I399393
sg33
g7
sg34
I591250
sg35
g7
sg36
F0.5061889897794771
ssS'MARTIN AMANDA K'
p415
(dp416
g3
I1522
sg4
I85430
sg6
F0.010161750614010964
sg8
F0.005256241787122208
sg9
I8211
sg10
F0.0009766842361189749
sg11
I00
sg12
g5
sg13
S'a..martin@enron.com'
p417
sg15
I5145434
sg16
F0.2722602739726027
sg17
g5
sg18
g7
sg19
I477
sg20
g5
sg21
I230
sg22
I2818454
sg23
g5
sg24
g5
sg25
F0.0
sg26
I2070306
sg27
I8
sg28
I0
sg29
g7
sg30
g5
sg31
I349487
sg32
I8407016
sg33
g7
sg34
I2070306
sg35
g7
sg36
F1.0
ssS'BUY RICHARD B'
p418
(dp419
g3
I3523
sg4
I649584
sg6
F0.27574964914917083
sg8
F0.04428044280442804
sg9
g5
sg10
g7
sg11
I00
sg12
I-694862
sg13
S'rick.buy@enron.com'
p420
sg15
I769862
sg16
F0.509833916083916
sg17
g5
sg18
F2.722767784211577
sg19
I2333
sg20
g5
sg21
I1053
sg22
I400572
sg23
g5
sg24
I900000
sg25
F0.06742640075973409
sg26
I3444470
sg27
I156
sg28
I71
sg29
F0.26176944493637627
sg30
I901657
sg31
I330546
sg32
I2355702
sg33
g7
sg34
I2542813
sg35
g7
sg36
F0.7382305550636237
ssS'GRAMM WENDY L'
p421
(dp422
g3
g5
sg4
g5
sg6
g7
sg8
g7
sg9
g5
sg10
g7
sg11
I00
sg12
g5
sg13
g5
sg15
g5
sg16
g7
sg17
g5
sg18
g7
sg19
g5
sg20
g5
sg21
g5
sg22
g5
sg23
I119292
sg24
g5
sg25
g7
sg26
g5
sg27
g5
sg28
g5
sg29
g7
sg30
g5
sg31
g5
sg32
I119292
sg33
g7
sg34
g5
sg35
F1.0
sg36
g7
ssS'CAUSEY RICHARD A'
p423
(dp424
g3
I1892
sg4
g5
sg6
g7
sg8
F0.0306553911205074
sg9
I30674
sg10
F0.016414110334243386
sg11
I01
sg12
I-235000
sg13
S'richard.causey@enron.com'
p425
sg15
I350000
sg16
F0.8165893869139619
sg17
g5
sg18
F2.4085416521150607
sg19
I1585
sg20
g5
sg21
I49
sg22
I307895
sg23
g5
sg24
I1000000
sg25
F0.24489795918367346
sg26
I2502063
sg27
I58
sg28
I12
sg29
F1.0
sg30
I2502063
sg31
I415189
sg32
I1868758
sg33
g7
sg34
g5
sg35
g7
sg36
g7
ssS'TAYLOR MITCHELL S'
p426
(dp427
g3
I533
sg4
I227449
sg6
F0.20816024702950497
sg8
F0.0
sg9
g5
sg10
g7
sg11
I00
sg12
g5
sg13
S'mitchell.taylor@enron.com'
p428
sg15
g5
sg16
F0.5338078291814946
sg17
g5
sg18
F2.2623240100447184
sg19
I300
sg20
g5
sg21
I29
sg22
g5
sg23
g5
sg24
I600000
sg25
F0.0
sg26
I3745048
sg27
I0
sg28
I0
sg29
F0.15054493293543902
sg30
I563798
sg31
I265214
sg32
I1092663
sg33
g7
sg34
I3181250
sg35
g7
sg36
F0.849455067064561
ssS'DONAHUE JR JEFFREY M'
p429
(dp430
g3
I865
sg4
g5
sg6
g7
sg8
F0.21734104046242775
sg9
I96268
sg10
F0.1099250936329588
sg11
I00
sg12
I-300000
sg13
S'jeff.donahue@enron.com'
p431
sg15
g5
sg16
F0.8703494926719278
sg17
g5
sg18
F2.8714900520816506
sg19
I772
sg20
g5
sg21
I22
sg22
I891
sg23
g5
sg24
I800000
sg25
F0.5
sg26
I1080988
sg27
I188
sg28
I11
sg29
F0.2914629949638664
sg30
I315068
sg31
I278601
sg32
I875760
sg33
g7
sg34
I765920
sg35
g7
sg36
F0.7085370050361336
ssS'GLISAN JR BEN F'
p432
(dp433
g3
I873
sg4
g5
sg6
g7
sg8
F0.05956471935853379
sg9
I125978
sg10
F0.09901720056213864
sg11
I01
sg12
g5
sg13
S'ben.glisan@enron.com'
p434
sg15
I71023
sg16
F0.983127109111361
sg17
g5
sg18
F2.1820165469588146
sg19
I874
sg20
g5
sg21
I16
sg22
I200308
sg23
g5
sg24
I600000
sg25
F0.375
sg26
I778546
sg27
I52
sg28
I6
sg29
F0.5058378053448351
sg30
I393818
sg31
I274975
sg32
I1272284
sg33
g7
sg34
I384728
sg35
g7
sg36
F0.49416219465516487
ss.