(lp0
S'poi'
p1
aS'salary'
p2
aS'from_this_person_to_poi'
p3
aS'from_poi_to_this_person'
p4
aS'total_stock_value'
p5
aS'deferral_payments'
p6
aS'restricted_stock_deferred'
p7
aS'deferred_income'
p8
aS'total_payments'
p9
aS'loan_advances'
p10
aS'bonus'
p11
aS'expenses'
p12
aS'exercised_stock_options'
p13
aS'other'
p14
aS'long_term_incentive'
p15
aS'restricted_stock'
p16
aS'director_fees'
p17
aS'to_messages'
p18
aS'from_messages'
p19
aS'shared_receipt_with_poi'
p20
aS'percent_exercised_stock'
p21
aS'percent_to_poi'
p22
aS'percent_from_poi'
p23
a.